; Listing generated by Microsoft (R) Optimizing Compiler Version 19.38.32919.0 

include listing.inc

INCLUDELIB MSVCRTD
INCLUDELIB OLDNAMES

msvcjmc	SEGMENT
__4A1476EC_concurrencysal@h DB 01H
__1B4F4039_sal@h DB 01H
__4836692D_vadefs@h DB 01H
__1911A958_vcruntime@h DB 01H
__FDCCEC45_xkeycheck@h DB 01H
__A172C422_yvals_core@h DB 01H
__8E4D2974_limits@h DB 01H
__61C4D695_climits DB 01H
__1B0272D9_corecrt@h DB 01H
__B5B47814_vcruntime_new@h DB 01H
__45E62246_vcruntime_new_debug@h DB 01H
__935DC21B_crtdbg@h DB 01H
__5C3F75F6_crtdefs@h DB 01H
__4842DED6_use_ansi@h DB 01H
__536B42D8_yvals@h DB 01H
__BB16330F_corecrt_math@h DB 01H
__3BF2A406_math@h DB 01H
__45DED006_corecrt_malloc@h DB 01H
__13F5961F_stddef@h DB 01H
__FD6DBD68_corecrt_search@h DB 01H
__E2E33A61_corecrt_wstdlib@h DB 01H
__6E5ACABA_stdlib@h DB 01H
__E52BF467_cstdlib DB 01H
__B34CEC9F_xtr1common DB 01H
__7DC11F10_intrin0@inl@h DB 01H
__4512CCFD_intrin0@h DB 01H
__79F54E8E_cmath DB 01H
__44420885_corecrt_stdio_config@h DB 01H
__AB601D8D_corecrt_wstdio@h DB 01H
__C1EC35D3_stdio@h DB 01H
__6A5E3BDF_cstdio DB 01H
__61CC25A1_errno@h DB 01H
__8C514B27_vcruntime_string@h DB 01H
__E4C945B4_corecrt_memcpy_s@h DB 01H
__8EAFF484_corecrt_memory@h DB 01H
__6490AEC5_corecrt_wstring@h DB 01H
__E8295E1E_string@h DB 01H
__A9B95C87_cstring DB 01H
__EF1F6BBA_corecrt_wconio@h DB 01H
__74484FB3_corecrt_wctype@h DB 01H
__3D1D430C_corecrt_wdirect@h DB 01H
__8ECB7138_corecrt_share@h DB 01H
__DB7FEBA6_corecrt_wio@h DB 01H
__9A9F0068_corecrt_wprocess@h DB 01H
__369A9BC3_corecrt_wtime@h DB 01H
__CE789B9D_types@h DB 01H
__9901C817_stat@h DB 01H
__3FCAD62E_wchar@h DB 01H
__F0D5ED8C_cwchar DB 01H
__B31568BA_iosfwd DB 01H
__40E02ECA_cstddef DB 01H
__50D200DF_initializer_list DB 01H
__303B074B_stdint@h DB 01H
__5875151A_cstdint DB 01H
__B3652A8E_type_traits DB 01H
__D22671EC_utility DB 01H
__BAA7054C___msvc_iter_core@hpp DB 01H
__5CE37FB6_xutility DB 01H
__4D4FC8F6_iterator DB 01H
__F7972D0B_share@h DB 01H
__8D53120D___msvc_system_error_abi@hpp DB 01H
__F77F4F24_cerrno DB 01H
__FA77ED4C_malloc@h DB 01H
__89766DA4_corecrt_terminate@h DB 01H
__69B6B8D3_eh@h DB 01H
__4D082714_vcruntime_exception@h DB 01H
__94601B60_exception DB 01H
__B9985323_float@h DB 01H
__191AF058_cfloat DB 01H
__7FFCBD3C_limits DB 01H
__1B365507_new DB 01H
__9E6C97B6_xatomic@h DB 01H
__B8B3122F_xmemory DB 01H
__7F6D198E___msvc_sanitizer_annotate_container@hpp DB 01H
__CC6094B3_xstring DB 01H
__1D2E213D_stdexcept DB 01H
__E2EA1A72_xcall_once@h DB 01H
__FBFE57D7_xerrc@h DB 01H
__0A9237D2_time@h DB 01H
__BF46D286_ctime DB 01H
__EA279CF7_xtimec@h DB 01H
__290CE965_xthreads@h DB 01H
__14C9E1FE_atomic DB 01H
__5DB70852_system_error DB 01H
__AE49E3D3_vcruntime_typeinfo@h DB 01H
__2C3C8CAF_typeinfo DB 01H
__C352B1B2_memory DB 01H
__EF17E6BD_xfacet DB 01H
__016FFDD9___msvc_xlocinfo_types@hpp DB 01H
__1EC467ED_ctype@h DB 01H
__6595DC78_cctype DB 01H
__791C33B7_locale@h DB 01H
__768728B6_clocale DB 01H
__33B56F67_xlocinfo DB 01H
__135EE082_xlocale DB 01H
__0A501874_xiosbase DB 01H
__1F8E9981_streambuf DB 01H
__8DD98695_xlocnum DB 01H
__E3FB6F11_ios DB 01H
__004E3A46_ostream DB 01H
__639E0F7C_istream DB 01H
__3E9A05A9_iostream DB 01H
__1A2DC738_lab01(kpo1)@cpp DB 01H
msvcjmc	ENDS
PUBLIC	?__empty_global_delete@@YAXPEAX@Z		; __empty_global_delete
PUBLIC	?__empty_global_delete@@YAXPEAX_K@Z		; __empty_global_delete
PUBLIC	?length@?$_Narrow_char_traits@DH@std@@SA_KQEBD@Z ; std::_Narrow_char_traits<char,int>::length
PUBLIC	?eq_int_type@?$_Narrow_char_traits@DH@std@@SA_NHH@Z ; std::_Narrow_char_traits<char,int>::eq_int_type
PUBLIC	?eof@?$_Narrow_char_traits@DH@std@@SAHXZ	; std::_Narrow_char_traits<char,int>::eof
PUBLIC	?BirthDay@@YAXPEAHHH@Z				; BirthDay
PUBLIC	??$endl@DU?$char_traits@D@std@@@std@@YAAEAV?$basic_ostream@DU?$char_traits@D@std@@@0@AEAV10@@Z ; std::endl<char,std::char_traits<char> >
PUBLIC	??$?6U?$char_traits@D@std@@@std@@YAAEAV?$basic_ostream@DU?$char_traits@D@std@@@0@AEAV10@PEBD@Z ; std::operator<<<std::char_traits<char> >
PUBLIC	?check@@YAXHHHPEAH@Z				; check
PUBLIC	?WhatDayIsIt@@YAH_NPEAHHH@Z			; WhatDayIsIt
PUBLIC	?visokos@@YAHH@Z				; visokos
PUBLIC	?YearCalculate@@YAXXZ				; YearCalculate
PUBLIC	?DayNum@@YAXXZ					; DayNum
PUBLIC	main
PUBLIC	??0_Sentry_base@?$basic_ostream@DU?$char_traits@D@std@@@std@@QEAA@AEAV12@@Z ; std::basic_ostream<char,std::char_traits<char> >::_Sentry_base::_Sentry_base
PUBLIC	??1_Sentry_base@?$basic_ostream@DU?$char_traits@D@std@@@std@@QEAA@XZ ; std::basic_ostream<char,std::char_traits<char> >::_Sentry_base::~_Sentry_base
PUBLIC	??0sentry@?$basic_ostream@DU?$char_traits@D@std@@@std@@QEAA@AEAV12@@Z ; std::basic_ostream<char,std::char_traits<char> >::sentry::sentry
PUBLIC	??1sentry@?$basic_ostream@DU?$char_traits@D@std@@@std@@QEAA@XZ ; std::basic_ostream<char,std::char_traits<char> >::sentry::~sentry
PUBLIC	??Bsentry@?$basic_ostream@DU?$char_traits@D@std@@@std@@QEBA_NXZ ; std::basic_ostream<char,std::char_traits<char> >::sentry::operator bool
PUBLIC	__JustMyCode_Default
PUBLIC	??_C@_0BK@MLAGINKD@Ur?5Birthday?3?5?5?$CIday?0month?$CJ@ ; `string'
PUBLIC	??_C@_0L@DLFGBAGH@Days?5left?3@			; `string'
PUBLIC	??_C@_05KNDMCGGM@ErRor@				; `string'
PUBLIC	??_C@_0O@LCJPGJGP@Visokosny?5god@		; `string'
PUBLIC	??_C@_0BA@LFHLOGIC@NEvisokosny?5god@		; `string'
PUBLIC	??_C@_05MFCIANHP@Year?3@			; `string'
PUBLIC	??_C@_05PBEOKIKC@Date?3@			; `string'
PUBLIC	??_C@_07MCBHGICE@Day?5is?3@			; `string'
EXTRN	__imp_exit:PROC
EXTRN	strlen:PROC
EXTRN	?uncaught_exception@std@@YA_NXZ:PROC		; std::uncaught_exception
EXTRN	__imp_?good@ios_base@std@@QEBA_NXZ:PROC
EXTRN	__imp_?flags@ios_base@std@@QEBAHXZ:PROC
EXTRN	__imp_?width@ios_base@std@@QEBA_JXZ:PROC
EXTRN	__imp_?width@ios_base@std@@QEAA_J_J@Z:PROC
EXTRN	__imp_?sputc@?$basic_streambuf@DU?$char_traits@D@std@@@std@@QEAAHD@Z:PROC
EXTRN	__imp_?sputn@?$basic_streambuf@DU?$char_traits@D@std@@@std@@QEAA_JPEBD_J@Z:PROC
EXTRN	__imp_?setstate@?$basic_ios@DU?$char_traits@D@std@@@std@@QEAAXH_N@Z:PROC
EXTRN	__imp_?tie@?$basic_ios@DU?$char_traits@D@std@@@std@@QEBAPEAV?$basic_ostream@DU?$char_traits@D@std@@@2@XZ:PROC
EXTRN	__imp_?rdbuf@?$basic_ios@DU?$char_traits@D@std@@@std@@QEBAPEAV?$basic_streambuf@DU?$char_traits@D@std@@@2@XZ:PROC
EXTRN	__imp_?fill@?$basic_ios@DU?$char_traits@D@std@@@std@@QEBADXZ:PROC
EXTRN	__imp_?widen@?$basic_ios@DU?$char_traits@D@std@@@std@@QEBADD@Z:PROC
EXTRN	__imp_?_Osfx@?$basic_ostream@DU?$char_traits@D@std@@@std@@QEAAXXZ:PROC
EXTRN	__imp_??6?$basic_ostream@DU?$char_traits@D@std@@@std@@QEAAAEAV01@P6AAEAV01@AEAV01@@Z@Z:PROC
EXTRN	__imp_??6?$basic_ostream@DU?$char_traits@D@std@@@std@@QEAAAEAV01@H@Z:PROC
EXTRN	__imp_?put@?$basic_ostream@DU?$char_traits@D@std@@@std@@QEAAAEAV12@D@Z:PROC
EXTRN	__imp_?flush@?$basic_ostream@DU?$char_traits@D@std@@@std@@QEAAAEAV12@XZ:PROC
EXTRN	__imp_??5?$basic_istream@DU?$char_traits@D@std@@@std@@QEAAAEAV01@AEAH@Z:PROC
EXTRN	_RTC_CheckStackVars:PROC
EXTRN	_RTC_InitBase:PROC
EXTRN	_RTC_Shutdown:PROC
EXTRN	__CheckForDebuggerJustMyCode:PROC
EXTRN	__CxxFrameHandler4:PROC
EXTRN	__GSHandlerCheck:PROC
EXTRN	__GSHandlerCheck_EH4:PROC
EXTRN	__security_check_cookie:PROC
EXTRN	__imp_?cin@std@@3V?$basic_istream@DU?$char_traits@D@std@@@1@A:BYTE
EXTRN	__imp_?cout@std@@3V?$basic_ostream@DU?$char_traits@D@std@@@1@A:BYTE
EXTRN	__security_cookie:QWORD
;	COMDAT pdata
pdata	SEGMENT
$pdata$?__empty_global_delete@@YAXPEAX@Z DD imagerel $LN3
	DD	imagerel $LN3+41
	DD	imagerel $unwind$?__empty_global_delete@@YAXPEAX@Z
pdata	ENDS
;	COMDAT pdata
pdata	SEGMENT
$pdata$?__empty_global_delete@@YAXPEAX_K@Z DD imagerel $LN3
	DD	imagerel $LN3+46
	DD	imagerel $unwind$?__empty_global_delete@@YAXPEAX_K@Z
pdata	ENDS
;	COMDAT pdata
pdata	SEGMENT
$pdata$?length@?$_Narrow_char_traits@DH@std@@SA_KQEBD@Z DD imagerel $LN3
	DD	imagerel $LN3+53
	DD	imagerel $unwind$?length@?$_Narrow_char_traits@DH@std@@SA_KQEBD@Z
pdata	ENDS
;	COMDAT pdata
pdata	SEGMENT
$pdata$?eq_int_type@?$_Narrow_char_traits@DH@std@@SA_NHH@Z DD imagerel $LN5
	DD	imagerel $LN5+87
	DD	imagerel $unwind$?eq_int_type@?$_Narrow_char_traits@DH@std@@SA_NHH@Z
pdata	ENDS
;	COMDAT pdata
pdata	SEGMENT
$pdata$?eof@?$_Narrow_char_traits@DH@std@@SAHXZ DD imagerel $LN3
	DD	imagerel $LN3+42
	DD	imagerel $unwind$?eof@?$_Narrow_char_traits@DH@std@@SAHXZ
pdata	ENDS
;	COMDAT pdata
pdata	SEGMENT
$pdata$?BirthDay@@YAXPEAHHH@Z DD imagerel $LN11
	DD	imagerel $LN11+583
	DD	imagerel $unwind$?BirthDay@@YAXPEAHHH@Z
pdata	ENDS
;	COMDAT pdata
pdata	SEGMENT
$pdata$??$endl@DU?$char_traits@D@std@@@std@@YAAEAV?$basic_ostream@DU?$char_traits@D@std@@@0@AEAV10@@Z DD imagerel $LN3
	DD	imagerel $LN3+115
	DD	imagerel $unwind$??$endl@DU?$char_traits@D@std@@@std@@YAAEAV?$basic_ostream@DU?$char_traits@D@std@@@0@AEAV10@@Z
pdata	ENDS
;	COMDAT pdata
pdata	SEGMENT
$pdata$??$?6U?$char_traits@D@std@@@std@@YAAEAV?$basic_ostream@DU?$char_traits@D@std@@@0@AEAV10@PEBD@Z DD imagerel $LN25
	DD	imagerel $LN25+943
	DD	imagerel $unwind$??$?6U?$char_traits@D@std@@@std@@YAAEAV?$basic_ostream@DU?$char_traits@D@std@@@0@AEAV10@PEBD@Z
pdata	ENDS
;	COMDAT pdata
pdata	SEGMENT
$pdata$?dtor$0@?0???$?6U?$char_traits@D@std@@@std@@YAAEAV?$basic_ostream@DU?$char_traits@D@std@@@0@AEAV10@PEBD@Z@4HA DD imagerel ?dtor$0@?0???$?6U?$char_traits@D@std@@@std@@YAAEAV?$basic_ostream@DU?$char_traits@D@std@@@0@AEAV10@PEBD@Z@4HA
	DD	imagerel ?dtor$0@?0???$?6U?$char_traits@D@std@@@std@@YAAEAV?$basic_ostream@DU?$char_traits@D@std@@@0@AEAV10@PEBD@Z@4HA+36
	DD	imagerel $unwind$?dtor$0@?0???$?6U?$char_traits@D@std@@@std@@YAAEAV?$basic_ostream@DU?$char_traits@D@std@@@0@AEAV10@PEBD@Z@4HA
pdata	ENDS
;	COMDAT pdata
pdata	SEGMENT
$pdata$?catch$1@?0???$?6U?$char_traits@D@std@@@std@@YAAEAV?$basic_ostream@DU?$char_traits@D@std@@@0@AEAV10@PEBD@Z@4HA DD imagerel ?catch$1@?0???$?6U?$char_traits@D@std@@@std@@YAAEAV?$basic_ostream@DU?$char_traits@D@std@@@0@AEAV10@PEBD@Z@4HA
	DD	imagerel ?catch$1@?0???$?6U?$char_traits@D@std@@@std@@YAAEAV?$basic_ostream@DU?$char_traits@D@std@@@0@AEAV10@PEBD@Z@4HA+80
	DD	imagerel $unwind$?catch$1@?0???$?6U?$char_traits@D@std@@@std@@YAAEAV?$basic_ostream@DU?$char_traits@D@std@@@0@AEAV10@PEBD@Z@4HA
pdata	ENDS
;	COMDAT pdata
pdata	SEGMENT
$pdata$?check@@YAXHHHPEAH@Z DD imagerel $LN11
	DD	imagerel $LN11+307
	DD	imagerel $unwind$?check@@YAXHHHPEAH@Z
pdata	ENDS
;	COMDAT pdata
pdata	SEGMENT
$pdata$?WhatDayIsIt@@YAH_NPEAHHH@Z DD imagerel $LN7
	DD	imagerel $LN7+185
	DD	imagerel $unwind$?WhatDayIsIt@@YAH_NPEAHHH@Z
pdata	ENDS
;	COMDAT pdata
pdata	SEGMENT
$pdata$?visokos@@YAHH@Z DD imagerel $LN7
	DD	imagerel $LN7+182
	DD	imagerel $unwind$?visokos@@YAHH@Z
pdata	ENDS
;	COMDAT pdata
pdata	SEGMENT
$pdata$?YearCalculate@@YAXXZ DD imagerel $LN7
	DD	imagerel $LN7+278
	DD	imagerel $unwind$?YearCalculate@@YAXXZ
pdata	ENDS
;	COMDAT pdata
pdata	SEGMENT
$pdata$?DayNum@@YAXXZ DD imagerel $LN11
	DD	imagerel $LN11+574
	DD	imagerel $unwind$?DayNum@@YAXXZ
pdata	ENDS
;	COMDAT pdata
pdata	SEGMENT
$pdata$main DD	imagerel $LN5
	DD	imagerel $LN5+483
	DD	imagerel $unwind$main
pdata	ENDS
;	COMDAT pdata
pdata	SEGMENT
$pdata$??0_Sentry_base@?$basic_ostream@DU?$char_traits@D@std@@@std@@QEAA@AEAV12@@Z DD imagerel $LN4
	DD	imagerel $LN4+148
	DD	imagerel $unwind$??0_Sentry_base@?$basic_ostream@DU?$char_traits@D@std@@@std@@QEAA@AEAV12@@Z
pdata	ENDS
;	COMDAT pdata
pdata	SEGMENT
$pdata$??1_Sentry_base@?$basic_ostream@DU?$char_traits@D@std@@@std@@QEAA@XZ DD imagerel $LN4
	DD	imagerel $LN4+120
	DD	imagerel $unwind$??1_Sentry_base@?$basic_ostream@DU?$char_traits@D@std@@@std@@QEAA@XZ
pdata	ENDS
;	COMDAT pdata
pdata	SEGMENT
$pdata$??0sentry@?$basic_ostream@DU?$char_traits@D@std@@@std@@QEAA@AEAV12@@Z DD imagerel $LN7
	DD	imagerel $LN7+261
	DD	imagerel $unwind$??0sentry@?$basic_ostream@DU?$char_traits@D@std@@@std@@QEAA@AEAV12@@Z
pdata	ENDS
;	COMDAT pdata
pdata	SEGMENT
$pdata$?dtor$0@?0???0sentry@?$basic_ostream@DU?$char_traits@D@std@@@std@@QEAA@AEAV12@@Z@4HA DD imagerel ?dtor$0@?0???0sentry@?$basic_ostream@DU?$char_traits@D@std@@@std@@QEAA@AEAV12@@Z@4HA
	DD	imagerel ?dtor$0@?0???0sentry@?$basic_ostream@DU?$char_traits@D@std@@@std@@QEAA@AEAV12@@Z@4HA+39
	DD	imagerel $unwind$?dtor$0@?0???0sentry@?$basic_ostream@DU?$char_traits@D@std@@@std@@QEAA@AEAV12@@Z@4HA
pdata	ENDS
;	COMDAT pdata
pdata	SEGMENT
$pdata$??1sentry@?$basic_ostream@DU?$char_traits@D@std@@@std@@QEAA@XZ DD imagerel $LN6
	DD	imagerel $LN6+115
	DD	imagerel $unwind$??1sentry@?$basic_ostream@DU?$char_traits@D@std@@@std@@QEAA@XZ
pdata	ENDS
;	COMDAT pdata
pdata	SEGMENT
$pdata$??Bsentry@?$basic_ostream@DU?$char_traits@D@std@@@std@@QEBA_NXZ DD imagerel $LN3
	DD	imagerel $LN3+52
	DD	imagerel $unwind$??Bsentry@?$basic_ostream@DU?$char_traits@D@std@@@std@@QEBA_NXZ
pdata	ENDS
;	COMDAT rtc$TMZ
rtc$TMZ	SEGMENT
_RTC_Shutdown.rtc$TMZ DQ FLAT:_RTC_Shutdown
rtc$TMZ	ENDS
;	COMDAT rtc$IMZ
rtc$IMZ	SEGMENT
_RTC_InitBase.rtc$IMZ DQ FLAT:_RTC_InitBase
rtc$IMZ	ENDS
;	COMDAT ??_C@_07MCBHGICE@Day?5is?3@
CONST	SEGMENT
??_C@_07MCBHGICE@Day?5is?3@ DB 'Day is:', 00H		; `string'
CONST	ENDS
;	COMDAT ??_C@_05PBEOKIKC@Date?3@
CONST	SEGMENT
??_C@_05PBEOKIKC@Date?3@ DB 'Date:', 00H		; `string'
CONST	ENDS
;	COMDAT ??_C@_05MFCIANHP@Year?3@
CONST	SEGMENT
??_C@_05MFCIANHP@Year?3@ DB 'Year:', 00H		; `string'
CONST	ENDS
;	COMDAT ??_C@_0BA@LFHLOGIC@NEvisokosny?5god@
CONST	SEGMENT
??_C@_0BA@LFHLOGIC@NEvisokosny?5god@ DB 'NEvisokosny god', 00H ; `string'
CONST	ENDS
;	COMDAT ??_C@_0O@LCJPGJGP@Visokosny?5god@
CONST	SEGMENT
??_C@_0O@LCJPGJGP@Visokosny?5god@ DB 'Visokosny god', 00H ; `string'
CONST	ENDS
;	COMDAT ??_C@_05KNDMCGGM@ErRor@
CONST	SEGMENT
??_C@_05KNDMCGGM@ErRor@ DB 'ErRor', 00H			; `string'
CONST	ENDS
;	COMDAT ??_C@_0L@DLFGBAGH@Days?5left?3@
CONST	SEGMENT
??_C@_0L@DLFGBAGH@Days?5left?3@ DB 'Days left:', 00H	; `string'
CONST	ENDS
;	COMDAT ??_C@_0BK@MLAGINKD@Ur?5Birthday?3?5?5?$CIday?0month?$CJ@
CONST	SEGMENT
??_C@_0BK@MLAGINKD@Ur?5Birthday?3?5?5?$CIday?0month?$CJ@ DB 'Ur Birthday:'
	DB	'  (day,month)', 00H				; `string'
CONST	ENDS
;	COMDAT xdata
xdata	SEGMENT
$unwind$??Bsentry@?$basic_ostream@DU?$char_traits@D@std@@@std@@QEBA_NXZ DD 025051301H
	DD	010e2313H
	DD	07007001dH
	DD	05006H
xdata	ENDS
;	COMDAT xdata
xdata	SEGMENT
$unwind$??1sentry@?$basic_ostream@DU?$char_traits@D@std@@@std@@QEAA@XZ DD 025051301H
	DD	010e2313H
	DD	070070021H
	DD	05006H
xdata	ENDS
;	COMDAT voltbl
voltbl	SEGMENT
_volmd	DB	00H
	DB	05H
voltbl	ENDS
;	COMDAT xdata
xdata	SEGMENT
$unwind$?dtor$0@?0???0sentry@?$basic_ostream@DU?$char_traits@D@std@@@std@@QEAA@AEAV12@@Z@4HA DD 031001H
	DD	0700c4210H
	DD	0500bH
xdata	ENDS
;	COMDAT xdata
xdata	SEGMENT
$ip2state$??0sentry@?$basic_ostream@DU?$char_traits@D@std@@@std@@QEAA@AEAV12@@Z DB 06H
	DB	00H
	DB	00H
	DB	'p'
	DB	02H
	DB	0f1H, 02H
	DB	00H
xdata	ENDS
;	COMDAT xdata
xdata	SEGMENT
$stateUnwindMap$??0sentry@?$basic_ostream@DU?$char_traits@D@std@@@std@@QEAA@AEAV12@@Z DB 02H
	DB	0eH
	DD	imagerel ?dtor$0@?0???0sentry@?$basic_ostream@DU?$char_traits@D@std@@@std@@QEAA@AEAV12@@Z@4HA
xdata	ENDS
;	COMDAT xdata
xdata	SEGMENT
$cppxdata$??0sentry@?$basic_ostream@DU?$char_traits@D@std@@@std@@QEAA@AEAV12@@Z DB 028H
	DD	imagerel $stateUnwindMap$??0sentry@?$basic_ostream@DU?$char_traits@D@std@@@std@@QEAA@AEAV12@@Z
	DD	imagerel $ip2state$??0sentry@?$basic_ostream@DU?$char_traits@D@std@@@std@@QEAA@AEAV12@@Z
xdata	ENDS
;	COMDAT xdata
xdata	SEGMENT
$unwind$??0sentry@?$basic_ostream@DU?$char_traits@D@std@@@std@@QEAA@AEAV12@@Z DD 025051811H
	DD	01132318H
	DD	0700c0021H
	DD	0500bH
	DD	imagerel __CxxFrameHandler4
	DD	imagerel $cppxdata$??0sentry@?$basic_ostream@DU?$char_traits@D@std@@@std@@QEAA@AEAV12@@Z
xdata	ENDS
;	COMDAT xdata
xdata	SEGMENT
$ip2state$??1_Sentry_base@?$basic_ostream@DU?$char_traits@D@std@@@std@@QEAA@XZ DB 02H
	DB	00H
	DB	00H
xdata	ENDS
;	COMDAT xdata
xdata	SEGMENT
$cppxdata$??1_Sentry_base@?$basic_ostream@DU?$char_traits@D@std@@@std@@QEAA@XZ DB 060H
	DD	imagerel $ip2state$??1_Sentry_base@?$basic_ostream@DU?$char_traits@D@std@@@std@@QEAA@XZ
xdata	ENDS
;	COMDAT xdata
xdata	SEGMENT
$unwind$??1_Sentry_base@?$basic_ostream@DU?$char_traits@D@std@@@std@@QEAA@XZ DD 025051319H
	DD	010e2313H
	DD	070070021H
	DD	05006H
	DD	imagerel __CxxFrameHandler4
	DD	imagerel $cppxdata$??1_Sentry_base@?$basic_ostream@DU?$char_traits@D@std@@@std@@QEAA@XZ
xdata	ENDS
;	COMDAT xdata
xdata	SEGMENT
$unwind$??0_Sentry_base@?$basic_ostream@DU?$char_traits@D@std@@@std@@QEAA@AEAV12@@Z DD 025051801H
	DD	01132318H
	DD	0700c0021H
	DD	0500bH
xdata	ENDS
;	COMDAT voltbl
voltbl	SEGMENT
_volmd	DW	02aH
	DW	01caH
voltbl	ENDS
;	COMDAT xdata
xdata	SEGMENT
$unwind$main DD	025053119H
	DD	010a230fH
	DD	07003003fH
	DD	05002H
	DD	imagerel __GSHandlerCheck
	DD	01e8H
xdata	ENDS
;	COMDAT CONST
CONST	SEGMENT
main$rtcName$0 DB 064H
	DB	061H
	DB	079H
	DB	073H
	DB	00H
	ORG $+3
main$rtcName$1 DB 064H
	DB	061H
	DB	074H
	DB	065H
	DB	00H
	ORG $+3
main$rtcVarDesc DD 074H
	DD	04H
	DQ	FLAT:main$rtcName$1
	DD	028H
	DD	034H
	DQ	FLAT:main$rtcName$0
	ORG $+96
main$rtcFrameData DD 02H
	DD	00H
	DQ	FLAT:main$rtcVarDesc
CONST	ENDS
;	COMDAT voltbl
voltbl	SEGMENT
_volmd	DW	02aH
	DW	0225H
voltbl	ENDS
;	COMDAT xdata
xdata	SEGMENT
$unwind$?DayNum@@YAXXZ DD 025053119H
	DD	010a230fH
	DD	070030043H
	DD	05002H
	DD	imagerel __GSHandlerCheck
	DD	0208H
xdata	ENDS
;	COMDAT CONST
CONST	SEGMENT
?DayNum@@YAXXZ$rtcName$0 DB 066H			; DayNum
	DB	064H
	DB	061H
	DB	074H
	DB	065H
	DB	00H
	ORG $+2
?DayNum@@YAXXZ$rtcName$1 DB 064H			; DayNum
	DB	061H
	DB	079H
	DB	073H
	DB	00H
	ORG $+3
?DayNum@@YAXXZ$rtcVarDesc DD 0e8H			; DayNum
	DD	034H
	DQ	FLAT:?DayNum@@YAXXZ$rtcName$1
	DD	024H
	DD	04H
	DQ	FLAT:?DayNum@@YAXXZ$rtcName$0
	ORG $+96
?DayNum@@YAXXZ$rtcFrameData DD 02H			; DayNum
	DD	00H
	DQ	FLAT:?DayNum@@YAXXZ$rtcVarDesc
CONST	ENDS
;	COMDAT voltbl
voltbl	SEGMENT
_volmd	DB	02aH
	DB	0fdH
voltbl	ENDS
;	COMDAT xdata
xdata	SEGMENT
$unwind$?YearCalculate@@YAXXZ DD 025053119H
	DD	010a230fH
	DD	070030021H
	DD	05002H
	DD	imagerel __GSHandlerCheck
	DD	0f8H
xdata	ENDS
;	COMDAT CONST
CONST	SEGMENT
?YearCalculate@@YAXXZ$rtcName$0 DB 079H			; YearCalculate
	DB	065H
	DB	061H
	DB	072H
	DB	00H
	ORG $+11
?YearCalculate@@YAXXZ$rtcVarDesc DD 024H		; YearCalculate
	DD	04H
	DQ	FLAT:?YearCalculate@@YAXXZ$rtcName$0
	ORG $+48
?YearCalculate@@YAXXZ$rtcFrameData DD 01H		; YearCalculate
	DD	00H
	DQ	FLAT:?YearCalculate@@YAXXZ$rtcVarDesc
CONST	ENDS
;	COMDAT xdata
xdata	SEGMENT
$unwind$?visokos@@YAHH@Z DD 025051201H
	DD	010d2312H
	DD	07006001dH
	DD	05005H
xdata	ENDS
;	COMDAT xdata
xdata	SEGMENT
$unwind$?WhatDayIsIt@@YAH_NPEAHHH@Z DD 025052101H
	DD	011c2321H
	DD	070150025H
	DD	05014H
xdata	ENDS
;	COMDAT xdata
xdata	SEGMENT
$unwind$?check@@YAXHHHPEAH@Z DD 025052001H
	DD	011b2320H
	DD	07014001dH
	DD	05013H
xdata	ENDS
;	COMDAT voltbl
voltbl	SEGMENT
_volmd	DB	00H
	DB	05H
voltbl	ENDS
;	COMDAT voltbl
voltbl	SEGMENT
_volmd	DB	00H
	DB	05H
voltbl	ENDS
;	COMDAT voltbl
voltbl	SEGMENT
_volmd	DW	03bH
	DW	0396H
voltbl	ENDS
;	COMDAT xdata
xdata	SEGMENT
$unwind$?catch$1@?0???$?6U?$char_traits@D@std@@@std@@YAAEAV?$basic_ostream@DU?$char_traits@D@std@@@0@AEAV10@PEBD@Z@4HA DD 031001H
	DD	0700c4210H
	DD	0500bH
xdata	ENDS
;	COMDAT xdata
xdata	SEGMENT
$unwind$?dtor$0@?0???$?6U?$char_traits@D@std@@@std@@YAAEAV?$basic_ostream@DU?$char_traits@D@std@@@0@AEAV10@PEBD@Z@4HA DD 031001H
	DD	0700c4210H
	DD	0500bH
xdata	ENDS
;	COMDAT xdata
xdata	SEGMENT
$ip2state$??$?6U?$char_traits@D@std@@@std@@YAAEAV?$basic_ostream@DU?$char_traits@D@std@@@0@AEAV10@PEBD@Z DB 0aH
	DB	00H
	DB	00H
	DB	'A', 04H
	DB	02H
	DB	'<'
	DB	04H
	DB	'!', 08H
	DB	02H
	DB	't'
	DB	00H
xdata	ENDS
;	COMDAT xdata
xdata	SEGMENT
$handlerMap$??$?6U?$char_traits@D@std@@@std@@YAAEAV?$basic_ostream@DU?$char_traits@D@std@@@0@AEAV10@PEBD@Z DB 02H
	DB	01H
	DB	080H
	DD	imagerel ?catch$1@?0???$?6U?$char_traits@D@std@@@std@@YAAEAV?$basic_ostream@DU?$char_traits@D@std@@@0@AEAV10@PEBD@Z@4HA
xdata	ENDS
;	COMDAT xdata
xdata	SEGMENT
$tryMap$??$?6U?$char_traits@D@std@@@std@@YAAEAV?$basic_ostream@DU?$char_traits@D@std@@@0@AEAV10@PEBD@Z DB 02H
	DB	02H
	DB	02H
	DB	04H
	DD	imagerel $handlerMap$??$?6U?$char_traits@D@std@@@std@@YAAEAV?$basic_ostream@DU?$char_traits@D@std@@@0@AEAV10@PEBD@Z
xdata	ENDS
;	COMDAT xdata
xdata	SEGMENT
$stateUnwindMap$??$?6U?$char_traits@D@std@@@std@@YAAEAV?$basic_ostream@DU?$char_traits@D@std@@@0@AEAV10@PEBD@Z DB 06H
	DB	0eH
	DD	imagerel ?dtor$0@?0???$?6U?$char_traits@D@std@@@std@@YAAEAV?$basic_ostream@DU?$char_traits@D@std@@@0@AEAV10@PEBD@Z@4HA
	DB	028H
	DB	030H
xdata	ENDS
;	COMDAT xdata
xdata	SEGMENT
$cppxdata$??$?6U?$char_traits@D@std@@@std@@YAAEAV?$basic_ostream@DU?$char_traits@D@std@@@0@AEAV10@PEBD@Z DB 038H
	DD	imagerel $stateUnwindMap$??$?6U?$char_traits@D@std@@@std@@YAAEAV?$basic_ostream@DU?$char_traits@D@std@@@0@AEAV10@PEBD@Z
	DD	imagerel $tryMap$??$?6U?$char_traits@D@std@@@std@@YAAEAV?$basic_ostream@DU?$char_traits@D@std@@@0@AEAV10@PEBD@Z
	DD	imagerel $ip2state$??$?6U?$char_traits@D@std@@@std@@YAAEAV?$basic_ostream@DU?$char_traits@D@std@@@0@AEAV10@PEBD@Z
xdata	ENDS
;	COMDAT xdata
xdata	SEGMENT
$unwind$??$?6U?$char_traits@D@std@@@std@@YAAEAV?$basic_ostream@DU?$char_traits@D@std@@@0@AEAV10@PEBD@Z DD 025054219H
	DD	01132318H
	DD	0700c0035H
	DD	0500bH
	DD	imagerel __GSHandlerCheck_EH4
	DD	imagerel $cppxdata$??$?6U?$char_traits@D@std@@@std@@YAAEAV?$basic_ostream@DU?$char_traits@D@std@@@0@AEAV10@PEBD@Z
	DD	0193H
xdata	ENDS
;	COMDAT CONST
CONST	SEGMENT
??$?6U?$char_traits@D@std@@@std@@YAAEAV?$basic_ostream@DU?$char_traits@D@std@@@0@AEAV10@PEBD@Z$rtcName$0 DB 05fH ; std::operator<<<std::char_traits<char> >
	DB	04fH
	DB	06bH
	DB	00H
	ORG $+12
??$?6U?$char_traits@D@std@@@std@@YAAEAV?$basic_ostream@DU?$char_traits@D@std@@@0@AEAV10@PEBD@Z$rtcVarDesc DD 088H ; std::operator<<<std::char_traits<char> >
	DD	010H
	DQ	FLAT:??$?6U?$char_traits@D@std@@@std@@YAAEAV?$basic_ostream@DU?$char_traits@D@std@@@0@AEAV10@PEBD@Z$rtcName$0
	ORG $+48
??$?6U?$char_traits@D@std@@@std@@YAAEAV?$basic_ostream@DU?$char_traits@D@std@@@0@AEAV10@PEBD@Z$rtcFrameData DD 01H ; std::operator<<<std::char_traits<char> >
	DD	00H
	DQ	FLAT:??$?6U?$char_traits@D@std@@@std@@YAAEAV?$basic_ostream@DU?$char_traits@D@std@@@0@AEAV10@PEBD@Z$rtcVarDesc
CONST	ENDS
;	COMDAT xdata
xdata	SEGMENT
$unwind$??$endl@DU?$char_traits@D@std@@@std@@YAAEAV?$basic_ostream@DU?$char_traits@D@std@@@0@AEAV10@@Z DD 025051301H
	DD	010e2313H
	DD	07007001dH
	DD	05006H
xdata	ENDS
;	COMDAT voltbl
voltbl	SEGMENT
_volmd	DW	03fH
	DW	022eH
voltbl	ENDS
;	COMDAT xdata
xdata	SEGMENT
$unwind$?BirthDay@@YAXPEAHHH@Z DD 025054619H
	DD	0117231cH
	DD	070100039H
	DD	0500fH
	DD	imagerel __GSHandlerCheck
	DD	01b8H
xdata	ENDS
;	COMDAT CONST
CONST	SEGMENT
?BirthDay@@YAXPEAHHH@Z$rtcName$0 DB 042H		; BirthDay
	DB	064H
	DB	061H
	DB	074H
	DB	065H
	DB	00H
	ORG $+10
?BirthDay@@YAXPEAHHH@Z$rtcVarDesc DD 0a4H		; BirthDay
	DD	04H
	DQ	FLAT:?BirthDay@@YAXPEAHHH@Z$rtcName$0
	ORG $+48
?BirthDay@@YAXPEAHHH@Z$rtcFrameData DD 01H		; BirthDay
	DD	00H
	DQ	FLAT:?BirthDay@@YAXPEAHHH@Z$rtcVarDesc
CONST	ENDS
;	COMDAT xdata
xdata	SEGMENT
$unwind$?eof@?$_Narrow_char_traits@DH@std@@SAHXZ DD 025050f01H
	DD	010a230fH
	DD	07003001dH
	DD	05002H
xdata	ENDS
;	COMDAT xdata
xdata	SEGMENT
$unwind$?eq_int_type@?$_Narrow_char_traits@DH@std@@SA_NHH@Z DD 025051601H
	DD	01112316H
	DD	0700a001fH
	DD	05009H
xdata	ENDS
;	COMDAT xdata
xdata	SEGMENT
$unwind$?length@?$_Narrow_char_traits@DH@std@@SA_KQEBD@Z DD 025051301H
	DD	010e2313H
	DD	07007001dH
	DD	05006H
xdata	ENDS
;	COMDAT xdata
xdata	SEGMENT
$unwind$?__empty_global_delete@@YAXPEAX_K@Z DD 025051801H
	DD	01132318H
	DD	0700c001dH
	DD	0500bH
xdata	ENDS
;	COMDAT xdata
xdata	SEGMENT
$unwind$?__empty_global_delete@@YAXPEAX@Z DD 025051301H
	DD	010e2313H
	DD	07007001dH
	DD	05006H
xdata	ENDS
; Function compile flags: /Odt
;	COMDAT __JustMyCode_Default
_TEXT	SEGMENT
__JustMyCode_Default PROC				; COMDAT
  00000	c2 00 00	 ret	 0
__JustMyCode_Default ENDP
_TEXT	ENDS
; Function compile flags: /Odtp /RTCsu /ZI
; File C:\Program Files\Microsoft Visual Studio\2022\Preview\VC\Tools\MSVC\14.38.32919\include\ostream
;	COMDAT ??Bsentry@?$basic_ostream@DU?$char_traits@D@std@@@std@@QEBA_NXZ
_TEXT	SEGMENT
this$ = 224
??Bsentry@?$basic_ostream@DU?$char_traits@D@std@@@std@@QEBA_NXZ PROC ; std::basic_ostream<char,std::char_traits<char> >::sentry::operator bool, COMDAT

; 129  :         explicit __CLR_OR_THIS_CALL operator bool() const {

$LN3:
  00000	48 89 4c 24 08	 mov	 QWORD PTR [rsp+8], rcx
  00005	55		 push	 rbp
  00006	57		 push	 rdi
  00007	48 81 ec e8 00
	00 00		 sub	 rsp, 232		; 000000e8H
  0000e	48 8d 6c 24 20	 lea	 rbp, QWORD PTR [rsp+32]
  00013	48 8d 0d 00 00
	00 00		 lea	 rcx, OFFSET FLAT:__004E3A46_ostream
  0001a	e8 00 00 00 00	 call	 __CheckForDebuggerJustMyCode

; 130  :             return _Ok;

  0001f	48 8b 85 e0 00
	00 00		 mov	 rax, QWORD PTR this$[rbp]
  00026	0f b6 40 08	 movzx	 eax, BYTE PTR [rax+8]

; 131  :         }

  0002a	48 8d a5 c8 00
	00 00		 lea	 rsp, QWORD PTR [rbp+200]
  00031	5f		 pop	 rdi
  00032	5d		 pop	 rbp
  00033	c3		 ret	 0
??Bsentry@?$basic_ostream@DU?$char_traits@D@std@@@std@@QEBA_NXZ ENDP ; std::basic_ostream<char,std::char_traits<char> >::sentry::operator bool
_TEXT	ENDS
; Function compile flags: /Odtp /RTCsu /ZI
; File C:\Program Files\Microsoft Visual Studio\2022\Preview\VC\Tools\MSVC\14.38.32919\include\ostream
;	COMDAT ??1sentry@?$basic_ostream@DU?$char_traits@D@std@@@std@@QEAA@XZ
_TEXT	SEGMENT
_Zero_uncaught_exceptions$ = 4
tv72 = 212
this$ = 256
??1sentry@?$basic_ostream@DU?$char_traits@D@std@@@std@@QEAA@XZ PROC ; std::basic_ostream<char,std::char_traits<char> >::sentry::~sentry, COMDAT

; 114  :         __CLR_OR_THIS_CALL ~sentry() noexcept {

$LN6:
  00000	48 89 4c 24 08	 mov	 QWORD PTR [rsp+8], rcx
  00005	55		 push	 rbp
  00006	57		 push	 rdi
  00007	48 81 ec 08 01
	00 00		 sub	 rsp, 264		; 00000108H
  0000e	48 8d 6c 24 20	 lea	 rbp, QWORD PTR [rsp+32]
  00013	48 8d 0d 00 00
	00 00		 lea	 rcx, OFFSET FLAT:__004E3A46_ostream
  0001a	e8 00 00 00 00	 call	 __CheckForDebuggerJustMyCode

; 115  : #if !_HAS_EXCEPTIONS
; 116  :             const bool _Zero_uncaught_exceptions = true;
; 117  : #elif _HAS_DEPRECATED_UNCAUGHT_EXCEPTION
; 118  :             const bool _Zero_uncaught_exceptions = !_STD uncaught_exception(); // TRANSITION, ArchivedOS-12000909

  0001f	e8 00 00 00 00	 call	 ?uncaught_exception@std@@YA_NXZ ; std::uncaught_exception
  00024	0f b6 c0	 movzx	 eax, al
  00027	85 c0		 test	 eax, eax
  00029	75 09		 jne	 SHORT $LN4@sentry
  0002b	c6 85 d4 00 00
	00 01		 mov	 BYTE PTR tv72[rbp], 1
  00032	eb 07		 jmp	 SHORT $LN5@sentry
$LN4@sentry:
  00034	c6 85 d4 00 00
	00 00		 mov	 BYTE PTR tv72[rbp], 0
$LN5@sentry:
  0003b	0f b6 85 d4 00
	00 00		 movzx	 eax, BYTE PTR tv72[rbp]
  00042	88 45 04	 mov	 BYTE PTR _Zero_uncaught_exceptions$[rbp], al

; 119  : #else // ^^^ _HAS_DEPRECATED_UNCAUGHT_EXCEPTION / !_HAS_DEPRECATED_UNCAUGHT_EXCEPTION vvv
; 120  :             const bool _Zero_uncaught_exceptions = _STD uncaught_exceptions() == 0;
; 121  : #endif // !_HAS_DEPRECATED_UNCAUGHT_EXCEPTION
; 122  : 
; 123  :             if (_Zero_uncaught_exceptions) {

  00045	0f b6 45 04	 movzx	 eax, BYTE PTR _Zero_uncaught_exceptions$[rbp]
  00049	85 c0		 test	 eax, eax
  0004b	74 10		 je	 SHORT $LN2@sentry

; 124  :                 this->_Myostr._Osfx();

  0004d	48 8b 85 00 01
	00 00		 mov	 rax, QWORD PTR this$[rbp]
  00054	48 8b 08	 mov	 rcx, QWORD PTR [rax]
  00057	ff 15 00 00 00
	00		 call	 QWORD PTR __imp_?_Osfx@?$basic_ostream@DU?$char_traits@D@std@@@std@@QEAAXXZ
$LN2@sentry:

; 125  :             }
; 126  :         }

  0005d	48 8b 8d 00 01
	00 00		 mov	 rcx, QWORD PTR this$[rbp]
  00064	e8 00 00 00 00	 call	 ??1_Sentry_base@?$basic_ostream@DU?$char_traits@D@std@@@std@@QEAA@XZ ; std::basic_ostream<char,std::char_traits<char> >::_Sentry_base::~_Sentry_base
  00069	48 8d a5 e8 00
	00 00		 lea	 rsp, QWORD PTR [rbp+232]
  00070	5f		 pop	 rdi
  00071	5d		 pop	 rbp
  00072	c3		 ret	 0
??1sentry@?$basic_ostream@DU?$char_traits@D@std@@@std@@QEAA@XZ ENDP ; std::basic_ostream<char,std::char_traits<char> >::sentry::~sentry
_TEXT	ENDS
; Function compile flags: /Odtp /RTCsu /ZI
; File C:\Program Files\Microsoft Visual Studio\2022\Preview\VC\Tools\MSVC\14.38.32919\include\ostream
;	COMDAT ??0sentry@?$basic_ostream@DU?$char_traits@D@std@@@std@@QEAA@AEAV12@@Z
_TEXT	SEGMENT
_Tied$ = 8
this$ = 256
_Ostr$ = 264
??0sentry@?$basic_ostream@DU?$char_traits@D@std@@@std@@QEAA@AEAV12@@Z PROC ; std::basic_ostream<char,std::char_traits<char> >::sentry::sentry, COMDAT

; 97   :         explicit __CLR_OR_THIS_CALL sentry(basic_ostream& _Ostr) : _Sentry_base(_Ostr) {

$LN7:
  00000	48 89 54 24 10	 mov	 QWORD PTR [rsp+16], rdx
  00005	48 89 4c 24 08	 mov	 QWORD PTR [rsp+8], rcx
  0000a	55		 push	 rbp
  0000b	57		 push	 rdi
  0000c	48 81 ec 08 01
	00 00		 sub	 rsp, 264		; 00000108H
  00013	48 8d 6c 24 20	 lea	 rbp, QWORD PTR [rsp+32]
  00018	48 8d 0d 00 00
	00 00		 lea	 rcx, OFFSET FLAT:__004E3A46_ostream
  0001f	e8 00 00 00 00	 call	 __CheckForDebuggerJustMyCode
  00024	48 8b 95 08 01
	00 00		 mov	 rdx, QWORD PTR _Ostr$[rbp]
  0002b	48 8b 8d 00 01
	00 00		 mov	 rcx, QWORD PTR this$[rbp]
  00032	e8 00 00 00 00	 call	 ??0_Sentry_base@?$basic_ostream@DU?$char_traits@D@std@@@std@@QEAA@AEAV12@@Z ; std::basic_ostream<char,std::char_traits<char> >::_Sentry_base::_Sentry_base
  00037	90		 npad	 1

; 98   :             if (!_Ostr.good()) {

  00038	48 8b 85 08 01
	00 00		 mov	 rax, QWORD PTR _Ostr$[rbp]
  0003f	48 8b 00	 mov	 rax, QWORD PTR [rax]
  00042	48 63 40 04	 movsxd	 rax, DWORD PTR [rax+4]
  00046	48 8b 8d 08 01
	00 00		 mov	 rcx, QWORD PTR _Ostr$[rbp]
  0004d	48 03 c8	 add	 rcx, rax
  00050	48 8b c1	 mov	 rax, rcx
  00053	48 8b c8	 mov	 rcx, rax
  00056	ff 15 00 00 00
	00		 call	 QWORD PTR __imp_?good@ios_base@std@@QEBA_NXZ
  0005c	0f b6 c0	 movzx	 eax, al
  0005f	85 c0		 test	 eax, eax
  00061	75 10		 jne	 SHORT $LN2@sentry

; 99   :                 _Ok = false;

  00063	48 8b 85 00 01
	00 00		 mov	 rax, QWORD PTR this$[rbp]
  0006a	c6 40 08 00	 mov	 BYTE PTR [rax+8], 0

; 100  :                 return;

  0006e	e9 81 00 00 00	 jmp	 $LN1@sentry
$LN2@sentry:

; 101  :             }
; 102  : 
; 103  :             const auto _Tied = _Ostr.tie();

  00073	48 8b 85 08 01
	00 00		 mov	 rax, QWORD PTR _Ostr$[rbp]
  0007a	48 8b 00	 mov	 rax, QWORD PTR [rax]
  0007d	48 63 40 04	 movsxd	 rax, DWORD PTR [rax+4]
  00081	48 8b 8d 08 01
	00 00		 mov	 rcx, QWORD PTR _Ostr$[rbp]
  00088	48 03 c8	 add	 rcx, rax
  0008b	48 8b c1	 mov	 rax, rcx
  0008e	48 8b c8	 mov	 rcx, rax
  00091	ff 15 00 00 00
	00		 call	 QWORD PTR __imp_?tie@?$basic_ios@DU?$char_traits@D@std@@@std@@QEBAPEAV?$basic_ostream@DU?$char_traits@D@std@@@2@XZ
  00097	48 89 45 08	 mov	 QWORD PTR _Tied$[rbp], rax

; 104  :             if (!_Tied || _Tied == &_Ostr) {

  0009b	48 83 7d 08 00	 cmp	 QWORD PTR _Tied$[rbp], 0
  000a0	74 0d		 je	 SHORT $LN4@sentry
  000a2	48 8b 85 08 01
	00 00		 mov	 rax, QWORD PTR _Ostr$[rbp]
  000a9	48 39 45 08	 cmp	 QWORD PTR _Tied$[rbp], rax
  000ad	75 0d		 jne	 SHORT $LN3@sentry
$LN4@sentry:

; 105  :                 _Ok = true;

  000af	48 8b 85 00 01
	00 00		 mov	 rax, QWORD PTR this$[rbp]
  000b6	c6 40 08 01	 mov	 BYTE PTR [rax+8], 1

; 106  :                 return;

  000ba	eb 38		 jmp	 SHORT $LN1@sentry
$LN3@sentry:

; 107  :             }
; 108  : 
; 109  :             _Tied->flush();

  000bc	48 8b 4d 08	 mov	 rcx, QWORD PTR _Tied$[rbp]
  000c0	ff 15 00 00 00
	00		 call	 QWORD PTR __imp_?flush@?$basic_ostream@DU?$char_traits@D@std@@@std@@QEAAAEAV12@XZ

; 110  :             _Ok = _Ostr.good(); // store test only after flushing tie

  000c6	48 8b 85 08 01
	00 00		 mov	 rax, QWORD PTR _Ostr$[rbp]
  000cd	48 8b 00	 mov	 rax, QWORD PTR [rax]
  000d0	48 63 40 04	 movsxd	 rax, DWORD PTR [rax+4]
  000d4	48 8b 8d 08 01
	00 00		 mov	 rcx, QWORD PTR _Ostr$[rbp]
  000db	48 03 c8	 add	 rcx, rax
  000de	48 8b c1	 mov	 rax, rcx
  000e1	48 8b c8	 mov	 rcx, rax
  000e4	ff 15 00 00 00
	00		 call	 QWORD PTR __imp_?good@ios_base@std@@QEBA_NXZ
  000ea	48 8b 8d 00 01
	00 00		 mov	 rcx, QWORD PTR this$[rbp]
  000f1	88 41 08	 mov	 BYTE PTR [rcx+8], al
$LN1@sentry:

; 111  :         }

  000f4	48 8b 85 00 01
	00 00		 mov	 rax, QWORD PTR this$[rbp]
  000fb	48 8d a5 e8 00
	00 00		 lea	 rsp, QWORD PTR [rbp+232]
  00102	5f		 pop	 rdi
  00103	5d		 pop	 rbp
  00104	c3		 ret	 0
??0sentry@?$basic_ostream@DU?$char_traits@D@std@@@std@@QEAA@AEAV12@@Z ENDP ; std::basic_ostream<char,std::char_traits<char> >::sentry::sentry
_TEXT	ENDS
; Function compile flags: /Odtp /RTCsu /ZI
;	COMDAT text$x
text$x	SEGMENT
_Tied$ = 8
this$ = 256
_Ostr$ = 264
?dtor$0@?0???0sentry@?$basic_ostream@DU?$char_traits@D@std@@@std@@QEAA@AEAV12@@Z@4HA PROC ; `std::basic_ostream<char,std::char_traits<char> >::sentry::sentry'::`1'::dtor$0
  00000	48 89 4c 24 08	 mov	 QWORD PTR [rsp+8], rcx
  00005	48 89 54 24 10	 mov	 QWORD PTR [rsp+16], rdx
  0000a	55		 push	 rbp
  0000b	57		 push	 rdi
  0000c	48 83 ec 28	 sub	 rsp, 40			; 00000028H
  00010	48 8d 6a 20	 lea	 rbp, QWORD PTR [rdx+32]
  00014	48 8b 8d 00 01
	00 00		 mov	 rcx, QWORD PTR this$[rbp]
  0001b	e8 00 00 00 00	 call	 ??1_Sentry_base@?$basic_ostream@DU?$char_traits@D@std@@@std@@QEAA@XZ ; std::basic_ostream<char,std::char_traits<char> >::_Sentry_base::~_Sentry_base
  00020	48 83 c4 28	 add	 rsp, 40			; 00000028H
  00024	5f		 pop	 rdi
  00025	5d		 pop	 rbp
  00026	c3		 ret	 0
?dtor$0@?0???0sentry@?$basic_ostream@DU?$char_traits@D@std@@@std@@QEAA@AEAV12@@Z@4HA ENDP ; `std::basic_ostream<char,std::char_traits<char> >::sentry::sentry'::`1'::dtor$0
text$x	ENDS
; Function compile flags: /Odtp /RTCsu /ZI
; File C:\Program Files\Microsoft Visual Studio\2022\Preview\VC\Tools\MSVC\14.38.32919\include\ostream
;	COMDAT ??1_Sentry_base@?$basic_ostream@DU?$char_traits@D@std@@@std@@QEAA@XZ
_TEXT	SEGMENT
_Rdbuf$ = 8
tv72 = 216
this$ = 256
??1_Sentry_base@?$basic_ostream@DU?$char_traits@D@std@@@std@@QEAA@XZ PROC ; std::basic_ostream<char,std::char_traits<char> >::_Sentry_base::~_Sentry_base, COMDAT

; 83   :         __CLR_OR_THIS_CALL ~_Sentry_base() noexcept { // destroy after unlocking

$LN4:
  00000	48 89 4c 24 08	 mov	 QWORD PTR [rsp+8], rcx
  00005	55		 push	 rbp
  00006	57		 push	 rdi
  00007	48 81 ec 08 01
	00 00		 sub	 rsp, 264		; 00000108H
  0000e	48 8d 6c 24 20	 lea	 rbp, QWORD PTR [rsp+32]
  00013	48 8d 0d 00 00
	00 00		 lea	 rcx, OFFSET FLAT:__004E3A46_ostream
  0001a	e8 00 00 00 00	 call	 __CheckForDebuggerJustMyCode

; 84   :             const auto _Rdbuf = _Myostr.rdbuf();

  0001f	48 8b 85 00 01
	00 00		 mov	 rax, QWORD PTR this$[rbp]
  00026	48 8b 00	 mov	 rax, QWORD PTR [rax]
  00029	48 89 85 d8 00
	00 00		 mov	 QWORD PTR tv72[rbp], rax
  00030	48 8b 85 d8 00
	00 00		 mov	 rax, QWORD PTR tv72[rbp]
  00037	48 8b 00	 mov	 rax, QWORD PTR [rax]
  0003a	48 63 40 04	 movsxd	 rax, DWORD PTR [rax+4]
  0003e	48 8b 8d d8 00
	00 00		 mov	 rcx, QWORD PTR tv72[rbp]
  00045	48 03 c8	 add	 rcx, rax
  00048	48 8b c1	 mov	 rax, rcx
  0004b	48 8b c8	 mov	 rcx, rax
  0004e	ff 15 00 00 00
	00		 call	 QWORD PTR __imp_?rdbuf@?$basic_ios@DU?$char_traits@D@std@@@std@@QEBAPEAV?$basic_streambuf@DU?$char_traits@D@std@@@2@XZ
  00054	48 89 45 08	 mov	 QWORD PTR _Rdbuf$[rbp], rax

; 85   :             if (_Rdbuf) {

  00058	48 83 7d 08 00	 cmp	 QWORD PTR _Rdbuf$[rbp], 0
  0005d	74 0f		 je	 SHORT $LN2@Sentry_bas

; 86   :                 _Rdbuf->_Unlock();

  0005f	48 8b 45 08	 mov	 rax, QWORD PTR _Rdbuf$[rbp]
  00063	48 8b 00	 mov	 rax, QWORD PTR [rax]
  00066	48 8b 4d 08	 mov	 rcx, QWORD PTR _Rdbuf$[rbp]
  0006a	ff 50 10	 call	 QWORD PTR [rax+16]
  0006d	90		 npad	 1
$LN2@Sentry_bas:

; 87   :             }
; 88   :         }

  0006e	48 8d a5 e8 00
	00 00		 lea	 rsp, QWORD PTR [rbp+232]
  00075	5f		 pop	 rdi
  00076	5d		 pop	 rbp
  00077	c3		 ret	 0
??1_Sentry_base@?$basic_ostream@DU?$char_traits@D@std@@@std@@QEAA@XZ ENDP ; std::basic_ostream<char,std::char_traits<char> >::_Sentry_base::~_Sentry_base
_TEXT	ENDS
; Function compile flags: /Odtp /RTCsu /ZI
; File C:\Program Files\Microsoft Visual Studio\2022\Preview\VC\Tools\MSVC\14.38.32919\include\ostream
;	COMDAT ??0_Sentry_base@?$basic_ostream@DU?$char_traits@D@std@@@std@@QEAA@AEAV12@@Z
_TEXT	SEGMENT
_Rdbuf$ = 8
tv73 = 216
this$ = 256
_Ostr$ = 264
??0_Sentry_base@?$basic_ostream@DU?$char_traits@D@std@@@std@@QEAA@AEAV12@@Z PROC ; std::basic_ostream<char,std::char_traits<char> >::_Sentry_base::_Sentry_base, COMDAT

; 76   :         __CLR_OR_THIS_CALL _Sentry_base(basic_ostream& _Ostr) : _Myostr(_Ostr) { // lock the stream buffer, if there

$LN4:
  00000	48 89 54 24 10	 mov	 QWORD PTR [rsp+16], rdx
  00005	48 89 4c 24 08	 mov	 QWORD PTR [rsp+8], rcx
  0000a	55		 push	 rbp
  0000b	57		 push	 rdi
  0000c	48 81 ec 08 01
	00 00		 sub	 rsp, 264		; 00000108H
  00013	48 8d 6c 24 20	 lea	 rbp, QWORD PTR [rsp+32]
  00018	48 8d 0d 00 00
	00 00		 lea	 rcx, OFFSET FLAT:__004E3A46_ostream
  0001f	e8 00 00 00 00	 call	 __CheckForDebuggerJustMyCode
  00024	48 8b 85 00 01
	00 00		 mov	 rax, QWORD PTR this$[rbp]
  0002b	48 8b 8d 08 01
	00 00		 mov	 rcx, QWORD PTR _Ostr$[rbp]
  00032	48 89 08	 mov	 QWORD PTR [rax], rcx

; 77   :             const auto _Rdbuf = _Myostr.rdbuf();

  00035	48 8b 85 00 01
	00 00		 mov	 rax, QWORD PTR this$[rbp]
  0003c	48 8b 00	 mov	 rax, QWORD PTR [rax]
  0003f	48 89 85 d8 00
	00 00		 mov	 QWORD PTR tv73[rbp], rax
  00046	48 8b 85 d8 00
	00 00		 mov	 rax, QWORD PTR tv73[rbp]
  0004d	48 8b 00	 mov	 rax, QWORD PTR [rax]
  00050	48 63 40 04	 movsxd	 rax, DWORD PTR [rax+4]
  00054	48 8b 8d d8 00
	00 00		 mov	 rcx, QWORD PTR tv73[rbp]
  0005b	48 03 c8	 add	 rcx, rax
  0005e	48 8b c1	 mov	 rax, rcx
  00061	48 8b c8	 mov	 rcx, rax
  00064	ff 15 00 00 00
	00		 call	 QWORD PTR __imp_?rdbuf@?$basic_ios@DU?$char_traits@D@std@@@std@@QEBAPEAV?$basic_streambuf@DU?$char_traits@D@std@@@2@XZ
  0006a	48 89 45 08	 mov	 QWORD PTR _Rdbuf$[rbp], rax

; 78   :             if (_Rdbuf) {

  0006e	48 83 7d 08 00	 cmp	 QWORD PTR _Rdbuf$[rbp], 0
  00073	74 0e		 je	 SHORT $LN2@Sentry_bas

; 79   :                 _Rdbuf->_Lock();

  00075	48 8b 45 08	 mov	 rax, QWORD PTR _Rdbuf$[rbp]
  00079	48 8b 00	 mov	 rax, QWORD PTR [rax]
  0007c	48 8b 4d 08	 mov	 rcx, QWORD PTR _Rdbuf$[rbp]
  00080	ff 50 08	 call	 QWORD PTR [rax+8]
$LN2@Sentry_bas:

; 80   :             }
; 81   :         }

  00083	48 8b 85 00 01
	00 00		 mov	 rax, QWORD PTR this$[rbp]
  0008a	48 8d a5 e8 00
	00 00		 lea	 rsp, QWORD PTR [rbp+232]
  00091	5f		 pop	 rdi
  00092	5d		 pop	 rbp
  00093	c3		 ret	 0
??0_Sentry_base@?$basic_ostream@DU?$char_traits@D@std@@@std@@QEAA@AEAV12@@Z ENDP ; std::basic_ostream<char,std::char_traits<char> >::_Sentry_base::_Sentry_base
_TEXT	ENDS
; Function compile flags: /Odtp /RTCsu /ZI
; File D:\уник\2 сем\КПО\lab01\lab01(kpo1)\lab01(kpo1)\lab01(kpo1).cpp
;	COMDAT main
_TEXT	SEGMENT
days$ = 8
date$ = 84
year$ = 116
month$ = 148
day$ = 180
count$ = 212
flag$ = 244
tv79 = 452
__$ArrayPad$ = 456
main	PROC						; COMDAT

; 126  : {

$LN5:
  00000	40 55		 push	 rbp
  00002	57		 push	 rdi
  00003	48 81 ec f8 01
	00 00		 sub	 rsp, 504		; 000001f8H
  0000a	48 8d 6c 24 20	 lea	 rbp, QWORD PTR [rsp+32]
  0000f	48 8d 7c 24 20	 lea	 rdi, QWORD PTR [rsp+32]
  00014	b9 46 00 00 00	 mov	 ecx, 70			; 00000046H
  00019	b8 cc cc cc cc	 mov	 eax, -858993460		; ccccccccH
  0001e	f3 ab		 rep stosd
  00020	48 8b 05 00 00
	00 00		 mov	 rax, QWORD PTR __security_cookie
  00027	48 33 c5	 xor	 rax, rbp
  0002a	48 89 85 c8 01
	00 00		 mov	 QWORD PTR __$ArrayPad$[rbp], rax
  00031	48 8d 0d 00 00
	00 00		 lea	 rcx, OFFSET FLAT:__1A2DC738_lab01(kpo1)@cpp
  00038	e8 00 00 00 00	 call	 __CheckForDebuggerJustMyCode

; 127  : 	int days[13] = { 0,31,28,31,30,31,30,31,31,30,31,30,31 };

  0003d	c7 45 08 00 00
	00 00		 mov	 DWORD PTR days$[rbp], 0
  00044	c7 45 0c 1f 00
	00 00		 mov	 DWORD PTR days$[rbp+4], 31
  0004b	c7 45 10 1c 00
	00 00		 mov	 DWORD PTR days$[rbp+8], 28
  00052	c7 45 14 1f 00
	00 00		 mov	 DWORD PTR days$[rbp+12], 31
  00059	c7 45 18 1e 00
	00 00		 mov	 DWORD PTR days$[rbp+16], 30
  00060	c7 45 1c 1f 00
	00 00		 mov	 DWORD PTR days$[rbp+20], 31
  00067	c7 45 20 1e 00
	00 00		 mov	 DWORD PTR days$[rbp+24], 30
  0006e	c7 45 24 1f 00
	00 00		 mov	 DWORD PTR days$[rbp+28], 31
  00075	c7 45 28 1f 00
	00 00		 mov	 DWORD PTR days$[rbp+32], 31
  0007c	c7 45 2c 1e 00
	00 00		 mov	 DWORD PTR days$[rbp+36], 30
  00083	c7 45 30 1f 00
	00 00		 mov	 DWORD PTR days$[rbp+40], 31
  0008a	c7 45 34 1e 00
	00 00		 mov	 DWORD PTR days$[rbp+44], 30
  00091	c7 45 38 1f 00
	00 00		 mov	 DWORD PTR days$[rbp+48], 31

; 128  : 	int date, year, month, day, count;
; 129  : 	bool flag;
; 130  : 	cout << "Date:";

  00098	48 8d 15 00 00
	00 00		 lea	 rdx, OFFSET FLAT:??_C@_05PBEOKIKC@Date?3@
  0009f	48 8b 0d 00 00
	00 00		 mov	 rcx, QWORD PTR __imp_?cout@std@@3V?$basic_ostream@DU?$char_traits@D@std@@@1@A
  000a6	e8 00 00 00 00	 call	 ??$?6U?$char_traits@D@std@@@std@@YAAEAV?$basic_ostream@DU?$char_traits@D@std@@@0@AEAV10@PEBD@Z ; std::operator<<<std::char_traits<char> >

; 131  : 	cin >> date;

  000ab	48 8d 55 54	 lea	 rdx, QWORD PTR date$[rbp]
  000af	48 8b 0d 00 00
	00 00		 mov	 rcx, QWORD PTR __imp_?cin@std@@3V?$basic_istream@DU?$char_traits@D@std@@@1@A
  000b6	ff 15 00 00 00
	00		 call	 QWORD PTR __imp_??5?$basic_istream@DU?$char_traits@D@std@@@std@@QEAAAEAV01@AEAH@Z

; 132  : 	day = date / 1000000;

  000bc	8b 45 54	 mov	 eax, DWORD PTR date$[rbp]
  000bf	99		 cdq
  000c0	b9 40 42 0f 00	 mov	 ecx, 1000000		; 000f4240H
  000c5	f7 f9		 idiv	 ecx
  000c7	89 85 b4 00 00
	00		 mov	 DWORD PTR day$[rbp], eax

; 133  : 	month = date / 10000 % 100;

  000cd	8b 45 54	 mov	 eax, DWORD PTR date$[rbp]
  000d0	99		 cdq
  000d1	b9 10 27 00 00	 mov	 ecx, 10000		; 00002710H
  000d6	f7 f9		 idiv	 ecx
  000d8	99		 cdq
  000d9	b9 64 00 00 00	 mov	 ecx, 100		; 00000064H
  000de	f7 f9		 idiv	 ecx
  000e0	8b c2		 mov	 eax, edx
  000e2	89 85 94 00 00
	00		 mov	 DWORD PTR month$[rbp], eax

; 134  : 	year = date % 10000;

  000e8	8b 45 54	 mov	 eax, DWORD PTR date$[rbp]
  000eb	99		 cdq
  000ec	b9 10 27 00 00	 mov	 ecx, 10000		; 00002710H
  000f1	f7 f9		 idiv	 ecx
  000f3	8b c2		 mov	 eax, edx
  000f5	89 45 74	 mov	 DWORD PTR year$[rbp], eax

; 135  : 
; 136  : 	check(day, month, year, days);

  000f8	4c 8d 4d 08	 lea	 r9, QWORD PTR days$[rbp]
  000fc	44 8b 45 74	 mov	 r8d, DWORD PTR year$[rbp]
  00100	8b 95 94 00 00
	00		 mov	 edx, DWORD PTR month$[rbp]
  00106	8b 8d b4 00 00
	00		 mov	 ecx, DWORD PTR day$[rbp]
  0010c	e8 00 00 00 00	 call	 ?check@@YAXHHHPEAH@Z	; check

; 137  : 
; 138  : 
; 139  : 	flag = visokos(year);

  00111	8b 4d 74	 mov	 ecx, DWORD PTR year$[rbp]
  00114	e8 00 00 00 00	 call	 ?visokos@@YAHH@Z	; visokos
  00119	85 c0		 test	 eax, eax
  0011b	74 09		 je	 SHORT $LN3@main
  0011d	c6 85 c4 01 00
	00 01		 mov	 BYTE PTR tv79[rbp], 1
  00124	eb 07		 jmp	 SHORT $LN4@main
$LN3@main:
  00126	c6 85 c4 01 00
	00 00		 mov	 BYTE PTR tv79[rbp], 0
$LN4@main:
  0012d	0f b6 85 c4 01
	00 00		 movzx	 eax, BYTE PTR tv79[rbp]
  00134	88 85 f4 00 00
	00		 mov	 BYTE PTR flag$[rbp], al

; 140  : 	cout << endl << "Day is:";

  0013a	48 8d 15 00 00
	00 00		 lea	 rdx, OFFSET FLAT:??$endl@DU?$char_traits@D@std@@@std@@YAAEAV?$basic_ostream@DU?$char_traits@D@std@@@0@AEAV10@@Z ; std::endl<char,std::char_traits<char> >
  00141	48 8b 0d 00 00
	00 00		 mov	 rcx, QWORD PTR __imp_?cout@std@@3V?$basic_ostream@DU?$char_traits@D@std@@@1@A
  00148	ff 15 00 00 00
	00		 call	 QWORD PTR __imp_??6?$basic_ostream@DU?$char_traits@D@std@@@std@@QEAAAEAV01@P6AAEAV01@AEAV01@@Z@Z
  0014e	48 8d 15 00 00
	00 00		 lea	 rdx, OFFSET FLAT:??_C@_07MCBHGICE@Day?5is?3@
  00155	48 8b c8	 mov	 rcx, rax
  00158	e8 00 00 00 00	 call	 ??$?6U?$char_traits@D@std@@@std@@YAAEAV?$basic_ostream@DU?$char_traits@D@std@@@0@AEAV10@PEBD@Z ; std::operator<<<std::char_traits<char> >

; 141  : 	count = WhatDayIsIt(flag, days, day, month);

  0015d	44 8b 8d 94 00
	00 00		 mov	 r9d, DWORD PTR month$[rbp]
  00164	44 8b 85 b4 00
	00 00		 mov	 r8d, DWORD PTR day$[rbp]
  0016b	48 8d 55 08	 lea	 rdx, QWORD PTR days$[rbp]
  0016f	0f b6 8d f4 00
	00 00		 movzx	 ecx, BYTE PTR flag$[rbp]
  00176	e8 00 00 00 00	 call	 ?WhatDayIsIt@@YAH_NPEAHHH@Z ; WhatDayIsIt
  0017b	89 85 d4 00 00
	00		 mov	 DWORD PTR count$[rbp], eax

; 142  : 	cout << count;

  00181	8b 95 d4 00 00
	00		 mov	 edx, DWORD PTR count$[rbp]
  00187	48 8b 0d 00 00
	00 00		 mov	 rcx, QWORD PTR __imp_?cout@std@@3V?$basic_ostream@DU?$char_traits@D@std@@@1@A
  0018e	ff 15 00 00 00
	00		 call	 QWORD PTR __imp_??6?$basic_ostream@DU?$char_traits@D@std@@@std@@QEAAAEAV01@H@Z

; 143  : 	BirthDay(days, day, month);

  00194	44 8b 85 94 00
	00 00		 mov	 r8d, DWORD PTR month$[rbp]
  0019b	8b 95 b4 00 00
	00		 mov	 edx, DWORD PTR day$[rbp]
  001a1	48 8d 4d 08	 lea	 rcx, QWORD PTR days$[rbp]
  001a5	e8 00 00 00 00	 call	 ?BirthDay@@YAXPEAHHH@Z	; BirthDay

; 144  : 	YearCalculate();

  001aa	e8 00 00 00 00	 call	 ?YearCalculate@@YAXXZ	; YearCalculate

; 145  : 	DayNum();

  001af	e8 00 00 00 00	 call	 ?DayNum@@YAXXZ		; DayNum

; 146  : }

  001b4	33 c0		 xor	 eax, eax
  001b6	8b f8		 mov	 edi, eax
  001b8	48 8d 4d e0	 lea	 rcx, QWORD PTR [rbp-32]
  001bc	48 8d 15 00 00
	00 00		 lea	 rdx, OFFSET FLAT:main$rtcFrameData
  001c3	e8 00 00 00 00	 call	 _RTC_CheckStackVars
  001c8	8b c7		 mov	 eax, edi
  001ca	48 8b 8d c8 01
	00 00		 mov	 rcx, QWORD PTR __$ArrayPad$[rbp]
  001d1	48 33 cd	 xor	 rcx, rbp
  001d4	e8 00 00 00 00	 call	 __security_check_cookie
  001d9	48 8d a5 d8 01
	00 00		 lea	 rsp, QWORD PTR [rbp+472]
  001e0	5f		 pop	 rdi
  001e1	5d		 pop	 rbp
  001e2	c3		 ret	 0
main	ENDP
_TEXT	ENDS
; Function compile flags: /Odtp /RTCsu /ZI
; File D:\уник\2 сем\КПО\lab01\lab01(kpo1)\lab01(kpo1)\lab01(kpo1).cpp
;	COMDAT ?DayNum@@YAXXZ
_TEXT	SEGMENT
fdate$ = 4
fday$ = 36
fmonth$ = 68
fyear$ = 100
flag$ = 132
sum$ = 164
days$ = 200
i$5 = 276
__$ArrayPad$ = 488
?DayNum@@YAXXZ PROC					; DayNum, COMDAT

; 93   : {

$LN11:
  00000	40 55		 push	 rbp
  00002	57		 push	 rdi
  00003	48 81 ec 18 02
	00 00		 sub	 rsp, 536		; 00000218H
  0000a	48 8d 6c 24 20	 lea	 rbp, QWORD PTR [rsp+32]
  0000f	48 8d 7c 24 20	 lea	 rdi, QWORD PTR [rsp+32]
  00014	b9 4e 00 00 00	 mov	 ecx, 78			; 0000004eH
  00019	b8 cc cc cc cc	 mov	 eax, -858993460		; ccccccccH
  0001e	f3 ab		 rep stosd
  00020	48 8b 05 00 00
	00 00		 mov	 rax, QWORD PTR __security_cookie
  00027	48 33 c5	 xor	 rax, rbp
  0002a	48 89 85 e8 01
	00 00		 mov	 QWORD PTR __$ArrayPad$[rbp], rax
  00031	48 8d 0d 00 00
	00 00		 lea	 rcx, OFFSET FLAT:__1A2DC738_lab01(kpo1)@cpp
  00038	e8 00 00 00 00	 call	 __CheckForDebuggerJustMyCode

; 94   : 	int fdate, fday, fmonth, fyear, flag;
; 95   : 	int sum = 0;

  0003d	c7 85 a4 00 00
	00 00 00 00 00	 mov	 DWORD PTR sum$[rbp], 0

; 96   : 	int days[13] = { 0,31,28,31,30,31,30,31,31,30,31,30,31 };

  00047	c7 85 c8 00 00
	00 00 00 00 00	 mov	 DWORD PTR days$[rbp], 0
  00051	c7 85 cc 00 00
	00 1f 00 00 00	 mov	 DWORD PTR days$[rbp+4], 31
  0005b	c7 85 d0 00 00
	00 1c 00 00 00	 mov	 DWORD PTR days$[rbp+8], 28
  00065	c7 85 d4 00 00
	00 1f 00 00 00	 mov	 DWORD PTR days$[rbp+12], 31
  0006f	c7 85 d8 00 00
	00 1e 00 00 00	 mov	 DWORD PTR days$[rbp+16], 30
  00079	c7 85 dc 00 00
	00 1f 00 00 00	 mov	 DWORD PTR days$[rbp+20], 31
  00083	c7 85 e0 00 00
	00 1e 00 00 00	 mov	 DWORD PTR days$[rbp+24], 30
  0008d	c7 85 e4 00 00
	00 1f 00 00 00	 mov	 DWORD PTR days$[rbp+28], 31
  00097	c7 85 e8 00 00
	00 1f 00 00 00	 mov	 DWORD PTR days$[rbp+32], 31
  000a1	c7 85 ec 00 00
	00 1e 00 00 00	 mov	 DWORD PTR days$[rbp+36], 30
  000ab	c7 85 f0 00 00
	00 1f 00 00 00	 mov	 DWORD PTR days$[rbp+40], 31
  000b5	c7 85 f4 00 00
	00 1e 00 00 00	 mov	 DWORD PTR days$[rbp+44], 30
  000bf	c7 85 f8 00 00
	00 1f 00 00 00	 mov	 DWORD PTR days$[rbp+48], 31

; 97   : 	cout << endl << "Date:";

  000c9	48 8d 15 00 00
	00 00		 lea	 rdx, OFFSET FLAT:??$endl@DU?$char_traits@D@std@@@std@@YAAEAV?$basic_ostream@DU?$char_traits@D@std@@@0@AEAV10@@Z ; std::endl<char,std::char_traits<char> >
  000d0	48 8b 0d 00 00
	00 00		 mov	 rcx, QWORD PTR __imp_?cout@std@@3V?$basic_ostream@DU?$char_traits@D@std@@@1@A
  000d7	ff 15 00 00 00
	00		 call	 QWORD PTR __imp_??6?$basic_ostream@DU?$char_traits@D@std@@@std@@QEAAAEAV01@P6AAEAV01@AEAV01@@Z@Z
  000dd	48 8d 15 00 00
	00 00		 lea	 rdx, OFFSET FLAT:??_C@_05PBEOKIKC@Date?3@
  000e4	48 8b c8	 mov	 rcx, rax
  000e7	e8 00 00 00 00	 call	 ??$?6U?$char_traits@D@std@@@std@@YAAEAV?$basic_ostream@DU?$char_traits@D@std@@@0@AEAV10@PEBD@Z ; std::operator<<<std::char_traits<char> >

; 98   : 	cin >> fdate;

  000ec	48 8d 55 04	 lea	 rdx, QWORD PTR fdate$[rbp]
  000f0	48 8b 0d 00 00
	00 00		 mov	 rcx, QWORD PTR __imp_?cin@std@@3V?$basic_istream@DU?$char_traits@D@std@@@1@A
  000f7	ff 15 00 00 00
	00		 call	 QWORD PTR __imp_??5?$basic_istream@DU?$char_traits@D@std@@@std@@QEAAAEAV01@AEAH@Z

; 99   : 	fday = fdate / 1000000;

  000fd	8b 45 04	 mov	 eax, DWORD PTR fdate$[rbp]
  00100	99		 cdq
  00101	b9 40 42 0f 00	 mov	 ecx, 1000000		; 000f4240H
  00106	f7 f9		 idiv	 ecx
  00108	89 45 24	 mov	 DWORD PTR fday$[rbp], eax

; 100  : 	fmonth = fdate / 10000 % 100;

  0010b	8b 45 04	 mov	 eax, DWORD PTR fdate$[rbp]
  0010e	99		 cdq
  0010f	b9 10 27 00 00	 mov	 ecx, 10000		; 00002710H
  00114	f7 f9		 idiv	 ecx
  00116	99		 cdq
  00117	b9 64 00 00 00	 mov	 ecx, 100		; 00000064H
  0011c	f7 f9		 idiv	 ecx
  0011e	8b c2		 mov	 eax, edx
  00120	89 45 44	 mov	 DWORD PTR fmonth$[rbp], eax

; 101  : 	fyear = fdate % 10000;

  00123	8b 45 04	 mov	 eax, DWORD PTR fdate$[rbp]
  00126	99		 cdq
  00127	b9 10 27 00 00	 mov	 ecx, 10000		; 00002710H
  0012c	f7 f9		 idiv	 ecx
  0012e	8b c2		 mov	 eax, edx
  00130	89 45 64	 mov	 DWORD PTR fyear$[rbp], eax

; 102  : 
; 103  : 
; 104  : 	if ((fyear % 4 == 0 and fyear % 100 != 0) or fyear % 400 == 0)

  00133	8b 45 64	 mov	 eax, DWORD PTR fyear$[rbp]
  00136	99		 cdq
  00137	83 e2 03	 and	 edx, 3
  0013a	03 c2		 add	 eax, edx
  0013c	83 e0 03	 and	 eax, 3
  0013f	2b c2		 sub	 eax, edx
  00141	85 c0		 test	 eax, eax
  00143	75 11		 jne	 SHORT $LN8@DayNum
  00145	8b 45 64	 mov	 eax, DWORD PTR fyear$[rbp]
  00148	99		 cdq
  00149	b9 64 00 00 00	 mov	 ecx, 100		; 00000064H
  0014e	f7 f9		 idiv	 ecx
  00150	8b c2		 mov	 eax, edx
  00152	85 c0		 test	 eax, eax
  00154	75 11		 jne	 SHORT $LN7@DayNum
$LN8@DayNum:
  00156	8b 45 64	 mov	 eax, DWORD PTR fyear$[rbp]
  00159	99		 cdq
  0015a	b9 90 01 00 00	 mov	 ecx, 400		; 00000190H
  0015f	f7 f9		 idiv	 ecx
  00161	8b c2		 mov	 eax, edx
  00163	85 c0		 test	 eax, eax
  00165	75 0c		 jne	 SHORT $LN5@DayNum
$LN7@DayNum:

; 105  : 	{
; 106  : 		flag = true;

  00167	c7 85 84 00 00
	00 01 00 00 00	 mov	 DWORD PTR flag$[rbp], 1

; 107  : 	}

  00171	eb 0a		 jmp	 SHORT $LN6@DayNum
$LN5@DayNum:

; 108  : 	else {
; 109  : 
; 110  : 		flag = false;

  00173	c7 85 84 00 00
	00 00 00 00 00	 mov	 DWORD PTR flag$[rbp], 0
$LN6@DayNum:

; 111  : 	}
; 112  : 
; 113  : 
; 114  : 	if (flag == true) { days[2] = 29; }

  0017d	83 bd 84 00 00
	00 01		 cmp	 DWORD PTR flag$[rbp], 1
  00184	75 14		 jne	 SHORT $LN9@DayNum
  00186	b8 04 00 00 00	 mov	 eax, 4
  0018b	48 6b c0 02	 imul	 rax, rax, 2
  0018f	c7 84 05 c8 00
	00 00 1d 00 00
	00		 mov	 DWORD PTR days$[rbp+rax], 29
$LN9@DayNum:

; 115  : 	for (int i = 1; i < fmonth; i++)

  0019a	c7 85 14 01 00
	00 01 00 00 00	 mov	 DWORD PTR i$5[rbp], 1
  001a4	eb 0e		 jmp	 SHORT $LN4@DayNum
$LN2@DayNum:
  001a6	8b 85 14 01 00
	00		 mov	 eax, DWORD PTR i$5[rbp]
  001ac	ff c0		 inc	 eax
  001ae	89 85 14 01 00
	00		 mov	 DWORD PTR i$5[rbp], eax
$LN4@DayNum:
  001b4	8b 45 44	 mov	 eax, DWORD PTR fmonth$[rbp]
  001b7	39 85 14 01 00
	00		 cmp	 DWORD PTR i$5[rbp], eax
  001bd	7d 20		 jge	 SHORT $LN3@DayNum

; 116  : 	{
; 117  : 		sum += days[i];

  001bf	48 63 85 14 01
	00 00		 movsxd	 rax, DWORD PTR i$5[rbp]
  001c6	8b 84 85 c8 00
	00 00		 mov	 eax, DWORD PTR days$[rbp+rax*4]
  001cd	8b 8d a4 00 00
	00		 mov	 ecx, DWORD PTR sum$[rbp]
  001d3	03 c8		 add	 ecx, eax
  001d5	8b c1		 mov	 eax, ecx
  001d7	89 85 a4 00 00
	00		 mov	 DWORD PTR sum$[rbp], eax

; 118  : 	}

  001dd	eb c7		 jmp	 SHORT $LN2@DayNum
$LN3@DayNum:

; 119  : 	sum += fday;

  001df	8b 45 24	 mov	 eax, DWORD PTR fday$[rbp]
  001e2	8b 8d a4 00 00
	00		 mov	 ecx, DWORD PTR sum$[rbp]
  001e8	03 c8		 add	 ecx, eax
  001ea	8b c1		 mov	 eax, ecx
  001ec	89 85 a4 00 00
	00		 mov	 DWORD PTR sum$[rbp], eax

; 120  : 	cout << sum << endl;

  001f2	8b 95 a4 00 00
	00		 mov	 edx, DWORD PTR sum$[rbp]
  001f8	48 8b 0d 00 00
	00 00		 mov	 rcx, QWORD PTR __imp_?cout@std@@3V?$basic_ostream@DU?$char_traits@D@std@@@1@A
  001ff	ff 15 00 00 00
	00		 call	 QWORD PTR __imp_??6?$basic_ostream@DU?$char_traits@D@std@@@std@@QEAAAEAV01@H@Z
  00205	48 8d 15 00 00
	00 00		 lea	 rdx, OFFSET FLAT:??$endl@DU?$char_traits@D@std@@@std@@YAAEAV?$basic_ostream@DU?$char_traits@D@std@@@0@AEAV10@@Z ; std::endl<char,std::char_traits<char> >
  0020c	48 8b c8	 mov	 rcx, rax
  0020f	ff 15 00 00 00
	00		 call	 QWORD PTR __imp_??6?$basic_ostream@DU?$char_traits@D@std@@@std@@QEAAAEAV01@P6AAEAV01@AEAV01@@Z@Z

; 121  : }

  00215	48 8d 4d e0	 lea	 rcx, QWORD PTR [rbp-32]
  00219	48 8d 15 00 00
	00 00		 lea	 rdx, OFFSET FLAT:?DayNum@@YAXXZ$rtcFrameData
  00220	e8 00 00 00 00	 call	 _RTC_CheckStackVars
  00225	48 8b 8d e8 01
	00 00		 mov	 rcx, QWORD PTR __$ArrayPad$[rbp]
  0022c	48 33 cd	 xor	 rcx, rbp
  0022f	e8 00 00 00 00	 call	 __security_check_cookie
  00234	48 8d a5 f8 01
	00 00		 lea	 rsp, QWORD PTR [rbp+504]
  0023b	5f		 pop	 rdi
  0023c	5d		 pop	 rbp
  0023d	c3		 ret	 0
?DayNum@@YAXXZ ENDP					; DayNum
_TEXT	ENDS
; Function compile flags: /Odtp /RTCsu /ZI
; File D:\уник\2 сем\КПО\lab01\lab01(kpo1)\lab01(kpo1)\lab01(kpo1).cpp
;	COMDAT ?YearCalculate@@YAXXZ
_TEXT	SEGMENT
year$ = 4
__$ArrayPad$ = 216
?YearCalculate@@YAXXZ PROC				; YearCalculate, COMDAT

; 78   : {

$LN7:
  00000	40 55		 push	 rbp
  00002	57		 push	 rdi
  00003	48 81 ec 08 01
	00 00		 sub	 rsp, 264		; 00000108H
  0000a	48 8d 6c 24 20	 lea	 rbp, QWORD PTR [rsp+32]
  0000f	48 8d 7c 24 20	 lea	 rdi, QWORD PTR [rsp+32]
  00014	b9 0a 00 00 00	 mov	 ecx, 10
  00019	b8 cc cc cc cc	 mov	 eax, -858993460		; ccccccccH
  0001e	f3 ab		 rep stosd
  00020	48 8b 05 00 00
	00 00		 mov	 rax, QWORD PTR __security_cookie
  00027	48 33 c5	 xor	 rax, rbp
  0002a	48 89 85 d8 00
	00 00		 mov	 QWORD PTR __$ArrayPad$[rbp], rax
  00031	48 8d 0d 00 00
	00 00		 lea	 rcx, OFFSET FLAT:__1A2DC738_lab01(kpo1)@cpp
  00038	e8 00 00 00 00	 call	 __CheckForDebuggerJustMyCode

; 79   : 	int year;
; 80   : 	cout << endl << "Year:";

  0003d	48 8d 15 00 00
	00 00		 lea	 rdx, OFFSET FLAT:??$endl@DU?$char_traits@D@std@@@std@@YAAEAV?$basic_ostream@DU?$char_traits@D@std@@@0@AEAV10@@Z ; std::endl<char,std::char_traits<char> >
  00044	48 8b 0d 00 00
	00 00		 mov	 rcx, QWORD PTR __imp_?cout@std@@3V?$basic_ostream@DU?$char_traits@D@std@@@1@A
  0004b	ff 15 00 00 00
	00		 call	 QWORD PTR __imp_??6?$basic_ostream@DU?$char_traits@D@std@@@std@@QEAAAEAV01@P6AAEAV01@AEAV01@@Z@Z
  00051	48 8d 15 00 00
	00 00		 lea	 rdx, OFFSET FLAT:??_C@_05MFCIANHP@Year?3@
  00058	48 8b c8	 mov	 rcx, rax
  0005b	e8 00 00 00 00	 call	 ??$?6U?$char_traits@D@std@@@std@@YAAEAV?$basic_ostream@DU?$char_traits@D@std@@@0@AEAV10@PEBD@Z ; std::operator<<<std::char_traits<char> >

; 81   : 	cin >> year;

  00060	48 8d 55 04	 lea	 rdx, QWORD PTR year$[rbp]
  00064	48 8b 0d 00 00
	00 00		 mov	 rcx, QWORD PTR __imp_?cin@std@@3V?$basic_istream@DU?$char_traits@D@std@@@1@A
  0006b	ff 15 00 00 00
	00		 call	 QWORD PTR __imp_??5?$basic_istream@DU?$char_traits@D@std@@@std@@QEAAAEAV01@AEAH@Z

; 82   : 	if ((year % 4 == 0 and year % 100 != 0) or year % 400 == 0)

  00071	8b 45 04	 mov	 eax, DWORD PTR year$[rbp]
  00074	99		 cdq
  00075	83 e2 03	 and	 edx, 3
  00078	03 c2		 add	 eax, edx
  0007a	83 e0 03	 and	 eax, 3
  0007d	2b c2		 sub	 eax, edx
  0007f	85 c0		 test	 eax, eax
  00081	75 11		 jne	 SHORT $LN5@YearCalcul
  00083	8b 45 04	 mov	 eax, DWORD PTR year$[rbp]
  00086	99		 cdq
  00087	b9 64 00 00 00	 mov	 ecx, 100		; 00000064H
  0008c	f7 f9		 idiv	 ecx
  0008e	8b c2		 mov	 eax, edx
  00090	85 c0		 test	 eax, eax
  00092	75 11		 jne	 SHORT $LN4@YearCalcul
$LN5@YearCalcul:
  00094	8b 45 04	 mov	 eax, DWORD PTR year$[rbp]
  00097	99		 cdq
  00098	b9 90 01 00 00	 mov	 ecx, 400		; 00000190H
  0009d	f7 f9		 idiv	 ecx
  0009f	8b c2		 mov	 eax, edx
  000a1	85 c0		 test	 eax, eax
  000a3	75 25		 jne	 SHORT $LN2@YearCalcul
$LN4@YearCalcul:

; 83   : 	{
; 84   : 		cout << "Visokosny god" << endl;

  000a5	48 8d 15 00 00
	00 00		 lea	 rdx, OFFSET FLAT:??_C@_0O@LCJPGJGP@Visokosny?5god@
  000ac	48 8b 0d 00 00
	00 00		 mov	 rcx, QWORD PTR __imp_?cout@std@@3V?$basic_ostream@DU?$char_traits@D@std@@@1@A
  000b3	e8 00 00 00 00	 call	 ??$?6U?$char_traits@D@std@@@std@@YAAEAV?$basic_ostream@DU?$char_traits@D@std@@@0@AEAV10@PEBD@Z ; std::operator<<<std::char_traits<char> >
  000b8	48 8d 15 00 00
	00 00		 lea	 rdx, OFFSET FLAT:??$endl@DU?$char_traits@D@std@@@std@@YAAEAV?$basic_ostream@DU?$char_traits@D@std@@@0@AEAV10@@Z ; std::endl<char,std::char_traits<char> >
  000bf	48 8b c8	 mov	 rcx, rax
  000c2	ff 15 00 00 00
	00		 call	 QWORD PTR __imp_??6?$basic_ostream@DU?$char_traits@D@std@@@std@@QEAAAEAV01@P6AAEAV01@AEAV01@@Z@Z

; 85   : 	}

  000c8	eb 23		 jmp	 SHORT $LN3@YearCalcul
$LN2@YearCalcul:

; 86   : 	else {
; 87   : 
; 88   : 		cout << "NEvisokosny god" << endl;

  000ca	48 8d 15 00 00
	00 00		 lea	 rdx, OFFSET FLAT:??_C@_0BA@LFHLOGIC@NEvisokosny?5god@
  000d1	48 8b 0d 00 00
	00 00		 mov	 rcx, QWORD PTR __imp_?cout@std@@3V?$basic_ostream@DU?$char_traits@D@std@@@1@A
  000d8	e8 00 00 00 00	 call	 ??$?6U?$char_traits@D@std@@@std@@YAAEAV?$basic_ostream@DU?$char_traits@D@std@@@0@AEAV10@PEBD@Z ; std::operator<<<std::char_traits<char> >
  000dd	48 8d 15 00 00
	00 00		 lea	 rdx, OFFSET FLAT:??$endl@DU?$char_traits@D@std@@@std@@YAAEAV?$basic_ostream@DU?$char_traits@D@std@@@0@AEAV10@@Z ; std::endl<char,std::char_traits<char> >
  000e4	48 8b c8	 mov	 rcx, rax
  000e7	ff 15 00 00 00
	00		 call	 QWORD PTR __imp_??6?$basic_ostream@DU?$char_traits@D@std@@@std@@QEAAAEAV01@P6AAEAV01@AEAV01@@Z@Z
$LN3@YearCalcul:

; 89   : 	}
; 90   : }

  000ed	48 8d 4d e0	 lea	 rcx, QWORD PTR [rbp-32]
  000f1	48 8d 15 00 00
	00 00		 lea	 rdx, OFFSET FLAT:?YearCalculate@@YAXXZ$rtcFrameData
  000f8	e8 00 00 00 00	 call	 _RTC_CheckStackVars
  000fd	48 8b 8d d8 00
	00 00		 mov	 rcx, QWORD PTR __$ArrayPad$[rbp]
  00104	48 33 cd	 xor	 rcx, rbp
  00107	e8 00 00 00 00	 call	 __security_check_cookie
  0010c	48 8d a5 e8 00
	00 00		 lea	 rsp, QWORD PTR [rbp+232]
  00113	5f		 pop	 rdi
  00114	5d		 pop	 rbp
  00115	c3		 ret	 0
?YearCalculate@@YAXXZ ENDP				; YearCalculate
_TEXT	ENDS
; Function compile flags: /Odtp /RTCsu /ZI
; File D:\уник\2 сем\КПО\lab01\lab01(kpo1)\lab01(kpo1)\lab01(kpo1).cpp
;	COMDAT ?visokos@@YAHH@Z
_TEXT	SEGMENT
year$ = 224
?visokos@@YAHH@Z PROC					; visokos, COMDAT

; 65   : {

$LN7:
  00000	89 4c 24 08	 mov	 DWORD PTR [rsp+8], ecx
  00004	55		 push	 rbp
  00005	57		 push	 rdi
  00006	48 81 ec e8 00
	00 00		 sub	 rsp, 232		; 000000e8H
  0000d	48 8d 6c 24 20	 lea	 rbp, QWORD PTR [rsp+32]
  00012	48 8d 0d 00 00
	00 00		 lea	 rcx, OFFSET FLAT:__1A2DC738_lab01(kpo1)@cpp
  00019	e8 00 00 00 00	 call	 __CheckForDebuggerJustMyCode

; 66   : 	if ((year % 4 == 0 and year % 100 != 0) or year % 400 == 0)

  0001e	8b 85 e0 00 00
	00		 mov	 eax, DWORD PTR year$[rbp]
  00024	99		 cdq
  00025	83 e2 03	 and	 edx, 3
  00028	03 c2		 add	 eax, edx
  0002a	83 e0 03	 and	 eax, 3
  0002d	2b c2		 sub	 eax, edx
  0002f	85 c0		 test	 eax, eax
  00031	75 14		 jne	 SHORT $LN5@visokos
  00033	8b 85 e0 00 00
	00		 mov	 eax, DWORD PTR year$[rbp]
  00039	99		 cdq
  0003a	b9 64 00 00 00	 mov	 ecx, 100		; 00000064H
  0003f	f7 f9		 idiv	 ecx
  00041	8b c2		 mov	 eax, edx
  00043	85 c0		 test	 eax, eax
  00045	75 14		 jne	 SHORT $LN4@visokos
$LN5@visokos:
  00047	8b 85 e0 00 00
	00		 mov	 eax, DWORD PTR year$[rbp]
  0004d	99		 cdq
  0004e	b9 90 01 00 00	 mov	 ecx, 400		; 00000190H
  00053	f7 f9		 idiv	 ecx
  00055	8b c2		 mov	 eax, edx
  00057	85 c0		 test	 eax, eax
  00059	75 2c		 jne	 SHORT $LN2@visokos
$LN4@visokos:

; 67   : 	{
; 68   : 		cout << endl << "Visokosny god";

  0005b	48 8d 15 00 00
	00 00		 lea	 rdx, OFFSET FLAT:??$endl@DU?$char_traits@D@std@@@std@@YAAEAV?$basic_ostream@DU?$char_traits@D@std@@@0@AEAV10@@Z ; std::endl<char,std::char_traits<char> >
  00062	48 8b 0d 00 00
	00 00		 mov	 rcx, QWORD PTR __imp_?cout@std@@3V?$basic_ostream@DU?$char_traits@D@std@@@1@A
  00069	ff 15 00 00 00
	00		 call	 QWORD PTR __imp_??6?$basic_ostream@DU?$char_traits@D@std@@@std@@QEAAAEAV01@P6AAEAV01@AEAV01@@Z@Z
  0006f	48 8d 15 00 00
	00 00		 lea	 rdx, OFFSET FLAT:??_C@_0O@LCJPGJGP@Visokosny?5god@
  00076	48 8b c8	 mov	 rcx, rax
  00079	e8 00 00 00 00	 call	 ??$?6U?$char_traits@D@std@@@std@@YAAEAV?$basic_ostream@DU?$char_traits@D@std@@@0@AEAV10@PEBD@Z ; std::operator<<<std::char_traits<char> >

; 69   : 		return true;

  0007e	b8 01 00 00 00	 mov	 eax, 1
  00083	eb 27		 jmp	 SHORT $LN1@visokos

; 70   : 	}

  00085	eb 25		 jmp	 SHORT $LN3@visokos
$LN2@visokos:

; 71   : 	else {
; 72   : 
; 73   : 		cout << endl << "NEvisokosny god";

  00087	48 8d 15 00 00
	00 00		 lea	 rdx, OFFSET FLAT:??$endl@DU?$char_traits@D@std@@@std@@YAAEAV?$basic_ostream@DU?$char_traits@D@std@@@0@AEAV10@@Z ; std::endl<char,std::char_traits<char> >
  0008e	48 8b 0d 00 00
	00 00		 mov	 rcx, QWORD PTR __imp_?cout@std@@3V?$basic_ostream@DU?$char_traits@D@std@@@1@A
  00095	ff 15 00 00 00
	00		 call	 QWORD PTR __imp_??6?$basic_ostream@DU?$char_traits@D@std@@@std@@QEAAAEAV01@P6AAEAV01@AEAV01@@Z@Z
  0009b	48 8d 15 00 00
	00 00		 lea	 rdx, OFFSET FLAT:??_C@_0BA@LFHLOGIC@NEvisokosny?5god@
  000a2	48 8b c8	 mov	 rcx, rax
  000a5	e8 00 00 00 00	 call	 ??$?6U?$char_traits@D@std@@@std@@YAAEAV?$basic_ostream@DU?$char_traits@D@std@@@0@AEAV10@PEBD@Z ; std::operator<<<std::char_traits<char> >

; 74   : 		return false;

  000aa	33 c0		 xor	 eax, eax
$LN3@visokos:
$LN1@visokos:

; 75   : 	}
; 76   : }

  000ac	48 8d a5 c8 00
	00 00		 lea	 rsp, QWORD PTR [rbp+200]
  000b3	5f		 pop	 rdi
  000b4	5d		 pop	 rbp
  000b5	c3		 ret	 0
?visokos@@YAHH@Z ENDP					; visokos
_TEXT	ENDS
; Function compile flags: /Odtp /RTCsu /ZI
; File D:\уник\2 сем\КПО\lab01\lab01(kpo1)\lab01(kpo1)\lab01(kpo1).cpp
;	COMDAT ?WhatDayIsIt@@YAH_NPEAHHH@Z
_TEXT	SEGMENT
sum$ = 4
i$1 = 36
flag$ = 288
array$ = 296
day$ = 304
month$ = 312
?WhatDayIsIt@@YAH_NPEAHHH@Z PROC			; WhatDayIsIt, COMDAT

; 52   : {

$LN7:
  00000	44 89 4c 24 20	 mov	 DWORD PTR [rsp+32], r9d
  00005	44 89 44 24 18	 mov	 DWORD PTR [rsp+24], r8d
  0000a	48 89 54 24 10	 mov	 QWORD PTR [rsp+16], rdx
  0000f	88 4c 24 08	 mov	 BYTE PTR [rsp+8], cl
  00013	55		 push	 rbp
  00014	57		 push	 rdi
  00015	48 81 ec 28 01
	00 00		 sub	 rsp, 296		; 00000128H
  0001c	48 8d 6c 24 20	 lea	 rbp, QWORD PTR [rsp+32]
  00021	48 8d 0d 00 00
	00 00		 lea	 rcx, OFFSET FLAT:__1A2DC738_lab01(kpo1)@cpp
  00028	e8 00 00 00 00	 call	 __CheckForDebuggerJustMyCode

; 53   : 	int sum = 0;

  0002d	c7 45 04 00 00
	00 00		 mov	 DWORD PTR sum$[rbp], 0

; 54   : 	if (flag == true) { *(array + 2) += 1; }

  00034	0f b6 85 20 01
	00 00		 movzx	 eax, BYTE PTR flag$[rbp]
  0003b	83 f8 01	 cmp	 eax, 1
  0003e	75 16		 jne	 SHORT $LN5@WhatDayIsI
  00040	48 8b 85 28 01
	00 00		 mov	 rax, QWORD PTR array$[rbp]
  00047	8b 40 08	 mov	 eax, DWORD PTR [rax+8]
  0004a	ff c0		 inc	 eax
  0004c	48 8b 8d 28 01
	00 00		 mov	 rcx, QWORD PTR array$[rbp]
  00053	89 41 08	 mov	 DWORD PTR [rcx+8], eax
$LN5@WhatDayIsI:

; 55   : 	for (int i = 1; i < month; i++)

  00056	c7 45 24 01 00
	00 00		 mov	 DWORD PTR i$1[rbp], 1
  0005d	eb 08		 jmp	 SHORT $LN4@WhatDayIsI
$LN2@WhatDayIsI:
  0005f	8b 45 24	 mov	 eax, DWORD PTR i$1[rbp]
  00062	ff c0		 inc	 eax
  00064	89 45 24	 mov	 DWORD PTR i$1[rbp], eax
$LN4@WhatDayIsI:
  00067	8b 85 38 01 00
	00		 mov	 eax, DWORD PTR month$[rbp]
  0006d	39 45 24	 cmp	 DWORD PTR i$1[rbp], eax
  00070	7d 1a		 jge	 SHORT $LN3@WhatDayIsI

; 56   : 	{
; 57   : 		sum += *(array + i);

  00072	48 63 45 24	 movsxd	 rax, DWORD PTR i$1[rbp]
  00076	48 8b 8d 28 01
	00 00		 mov	 rcx, QWORD PTR array$[rbp]
  0007d	8b 04 81	 mov	 eax, DWORD PTR [rcx+rax*4]
  00080	8b 4d 04	 mov	 ecx, DWORD PTR sum$[rbp]
  00083	03 c8		 add	 ecx, eax
  00085	8b c1		 mov	 eax, ecx
  00087	89 45 04	 mov	 DWORD PTR sum$[rbp], eax

; 58   : 	}

  0008a	eb d3		 jmp	 SHORT $LN2@WhatDayIsI
$LN3@WhatDayIsI:

; 59   : 	sum += day;

  0008c	8b 85 30 01 00
	00		 mov	 eax, DWORD PTR day$[rbp]
  00092	8b 4d 04	 mov	 ecx, DWORD PTR sum$[rbp]
  00095	03 c8		 add	 ecx, eax
  00097	8b c1		 mov	 eax, ecx
  00099	89 45 04	 mov	 DWORD PTR sum$[rbp], eax

; 60   : 	return sum;

  0009c	8b 45 04	 mov	 eax, DWORD PTR sum$[rbp]
  0009f	eb 0e		 jmp	 SHORT $LN1@WhatDayIsI

; 61   : 	*(array + 2) = 28;

  000a1	48 8b 85 28 01
	00 00		 mov	 rax, QWORD PTR array$[rbp]
  000a8	c7 40 08 1c 00
	00 00		 mov	 DWORD PTR [rax+8], 28
$LN1@WhatDayIsI:

; 62   : }

  000af	48 8d a5 08 01
	00 00		 lea	 rsp, QWORD PTR [rbp+264]
  000b6	5f		 pop	 rdi
  000b7	5d		 pop	 rbp
  000b8	c3		 ret	 0
?WhatDayIsIt@@YAH_NPEAHHH@Z ENDP			; WhatDayIsIt
_TEXT	ENDS
; Function compile flags: /Odtp /RTCsu /ZI
; File D:\уник\2 сем\КПО\lab01\lab01(kpo1)\lab01(kpo1)\lab01(kpo1).cpp
;	COMDAT ?check@@YAXHHHPEAH@Z
_TEXT	SEGMENT
day$ = 224
month$ = 232
year$ = 240
array$ = 248
?check@@YAXHHHPEAH@Z PROC				; check, COMDAT

; 32   : {

$LN11:
  00000	4c 89 4c 24 20	 mov	 QWORD PTR [rsp+32], r9
  00005	44 89 44 24 18	 mov	 DWORD PTR [rsp+24], r8d
  0000a	89 54 24 10	 mov	 DWORD PTR [rsp+16], edx
  0000e	89 4c 24 08	 mov	 DWORD PTR [rsp+8], ecx
  00012	55		 push	 rbp
  00013	57		 push	 rdi
  00014	48 81 ec e8 00
	00 00		 sub	 rsp, 232		; 000000e8H
  0001b	48 8d 6c 24 20	 lea	 rbp, QWORD PTR [rsp+32]
  00020	48 8d 0d 00 00
	00 00		 lea	 rcx, OFFSET FLAT:__1A2DC738_lab01(kpo1)@cpp
  00027	e8 00 00 00 00	 call	 __CheckForDebuggerJustMyCode

; 33   : 
; 34   : 	if ((year % 4 == 0 and year % 100 != 0) or year % 400 == 0)

  0002c	8b 85 f0 00 00
	00		 mov	 eax, DWORD PTR year$[rbp]
  00032	99		 cdq
  00033	83 e2 03	 and	 edx, 3
  00036	03 c2		 add	 eax, edx
  00038	83 e0 03	 and	 eax, 3
  0003b	2b c2		 sub	 eax, edx
  0003d	85 c0		 test	 eax, eax
  0003f	75 14		 jne	 SHORT $LN5@check
  00041	8b 85 f0 00 00
	00		 mov	 eax, DWORD PTR year$[rbp]
  00047	99		 cdq
  00048	b9 64 00 00 00	 mov	 ecx, 100		; 00000064H
  0004d	f7 f9		 idiv	 ecx
  0004f	8b c2		 mov	 eax, edx
  00051	85 c0		 test	 eax, eax
  00053	75 14		 jne	 SHORT $LN4@check
$LN5@check:
  00055	8b 85 f0 00 00
	00		 mov	 eax, DWORD PTR year$[rbp]
  0005b	99		 cdq
  0005c	b9 90 01 00 00	 mov	 ecx, 400		; 00000190H
  00061	f7 f9		 idiv	 ecx
  00063	8b c2		 mov	 eax, edx
  00065	85 c0		 test	 eax, eax
  00067	75 19		 jne	 SHORT $LN2@check
$LN4@check:

; 35   : 	{
; 36   : 		array[2] = 29;

  00069	b8 04 00 00 00	 mov	 eax, 4
  0006e	48 6b c0 02	 imul	 rax, rax, 2
  00072	48 8b 8d f8 00
	00 00		 mov	 rcx, QWORD PTR array$[rbp]
  00079	c7 04 01 1d 00
	00 00		 mov	 DWORD PTR [rcx+rax], 29

; 37   : 	}

  00080	eb 17		 jmp	 SHORT $LN3@check
$LN2@check:

; 38   : 	else {
; 39   : 
; 40   : 		array[2] = 28;

  00082	b8 04 00 00 00	 mov	 eax, 4
  00087	48 6b c0 02	 imul	 rax, rax, 2
  0008b	48 8b 8d f8 00
	00 00		 mov	 rcx, QWORD PTR array$[rbp]
  00092	c7 04 01 1c 00
	00 00		 mov	 DWORD PTR [rcx+rax], 28
$LN3@check:

; 41   : 	}
; 42   : 	if (month <= 0 or month >= 13) { cout << endl << "ErRor"; exit(69); }

  00099	83 bd e8 00 00
	00 00		 cmp	 DWORD PTR month$[rbp], 0
  000a0	7e 09		 jle	 SHORT $LN7@check
  000a2	83 bd e8 00 00
	00 0d		 cmp	 DWORD PTR month$[rbp], 13
  000a9	7c 2e		 jl	 SHORT $LN6@check
$LN7@check:
  000ab	48 8d 15 00 00
	00 00		 lea	 rdx, OFFSET FLAT:??$endl@DU?$char_traits@D@std@@@std@@YAAEAV?$basic_ostream@DU?$char_traits@D@std@@@0@AEAV10@@Z ; std::endl<char,std::char_traits<char> >
  000b2	48 8b 0d 00 00
	00 00		 mov	 rcx, QWORD PTR __imp_?cout@std@@3V?$basic_ostream@DU?$char_traits@D@std@@@1@A
  000b9	ff 15 00 00 00
	00		 call	 QWORD PTR __imp_??6?$basic_ostream@DU?$char_traits@D@std@@@std@@QEAAAEAV01@P6AAEAV01@AEAV01@@Z@Z
  000bf	48 8d 15 00 00
	00 00		 lea	 rdx, OFFSET FLAT:??_C@_05KNDMCGGM@ErRor@
  000c6	48 8b c8	 mov	 rcx, rax
  000c9	e8 00 00 00 00	 call	 ??$?6U?$char_traits@D@std@@@std@@YAAEAV?$basic_ostream@DU?$char_traits@D@std@@@0@AEAV10@PEBD@Z ; std::operator<<<std::char_traits<char> >
  000ce	b9 45 00 00 00	 mov	 ecx, 69			; 00000045H
  000d3	ff 15 00 00 00
	00		 call	 QWORD PTR __imp_exit
$LN6@check:

; 43   : 	if (array[month] < day or day == 0)

  000d9	48 63 85 e8 00
	00 00		 movsxd	 rax, DWORD PTR month$[rbp]
  000e0	48 8b 8d f8 00
	00 00		 mov	 rcx, QWORD PTR array$[rbp]
  000e7	8b 95 e0 00 00
	00		 mov	 edx, DWORD PTR day$[rbp]
  000ed	39 14 81	 cmp	 DWORD PTR [rcx+rax*4], edx
  000f0	7c 09		 jl	 SHORT $LN9@check
  000f2	83 bd e0 00 00
	00 00		 cmp	 DWORD PTR day$[rbp], 0
  000f9	75 2e		 jne	 SHORT $LN8@check
$LN9@check:

; 44   : 	{
; 45   : 		cout << endl << "ErRor";

  000fb	48 8d 15 00 00
	00 00		 lea	 rdx, OFFSET FLAT:??$endl@DU?$char_traits@D@std@@@std@@YAAEAV?$basic_ostream@DU?$char_traits@D@std@@@0@AEAV10@@Z ; std::endl<char,std::char_traits<char> >
  00102	48 8b 0d 00 00
	00 00		 mov	 rcx, QWORD PTR __imp_?cout@std@@3V?$basic_ostream@DU?$char_traits@D@std@@@1@A
  00109	ff 15 00 00 00
	00		 call	 QWORD PTR __imp_??6?$basic_ostream@DU?$char_traits@D@std@@@std@@QEAAAEAV01@P6AAEAV01@AEAV01@@Z@Z
  0010f	48 8d 15 00 00
	00 00		 lea	 rdx, OFFSET FLAT:??_C@_05KNDMCGGM@ErRor@
  00116	48 8b c8	 mov	 rcx, rax
  00119	e8 00 00 00 00	 call	 ??$?6U?$char_traits@D@std@@@std@@YAAEAV?$basic_ostream@DU?$char_traits@D@std@@@0@AEAV10@PEBD@Z ; std::operator<<<std::char_traits<char> >

; 46   : 		exit(69);

  0011e	b9 45 00 00 00	 mov	 ecx, 69			; 00000045H
  00123	ff 15 00 00 00
	00		 call	 QWORD PTR __imp_exit
$LN8@check:
$LN10@check:

; 47   : 	}
; 48   : 
; 49   : }

  00129	48 8d a5 c8 00
	00 00		 lea	 rsp, QWORD PTR [rbp+200]
  00130	5f		 pop	 rdi
  00131	5d		 pop	 rbp
  00132	c3		 ret	 0
?check@@YAXHHHPEAH@Z ENDP				; check
_TEXT	ENDS
; Function compile flags: /Odtp /RTCsu /ZI
; File C:\Program Files\Microsoft Visual Studio\2022\Preview\VC\Tools\MSVC\14.38.32919\include\ostream
;	COMDAT ??$?6U?$char_traits@D@std@@@std@@YAAEAV?$basic_ostream@DU?$char_traits@D@std@@@0@AEAV10@PEBD@Z
_TEXT	SEGMENT
_State$ = 4
_Count$ = 40
_Pad$ = 72
_Ok$ = 104
$T4 = 344
tv285 = 356
tv283 = 356
tv296 = 360
tv295 = 360
tv139 = 360
tv137 = 360
__$ArrayPad$ = 368
_Ostr$ = 416
_Val$ = 424
??$?6U?$char_traits@D@std@@@std@@YAAEAV?$basic_ostream@DU?$char_traits@D@std@@@0@AEAV10@PEBD@Z PROC ; std::operator<<<std::char_traits<char> >, COMDAT

; 767  : basic_ostream<char, _Traits>& operator<<(basic_ostream<char, _Traits>& _Ostr, const char* _Val) {

$LN25:
  00000	48 89 54 24 10	 mov	 QWORD PTR [rsp+16], rdx
  00005	48 89 4c 24 08	 mov	 QWORD PTR [rsp+8], rcx
  0000a	55		 push	 rbp
  0000b	57		 push	 rdi
  0000c	48 81 ec a8 01
	00 00		 sub	 rsp, 424		; 000001a8H
  00013	48 8d 6c 24 20	 lea	 rbp, QWORD PTR [rsp+32]
  00018	48 8d 7c 24 20	 lea	 rdi, QWORD PTR [rsp+32]
  0001d	b9 32 00 00 00	 mov	 ecx, 50			; 00000032H
  00022	b8 cc cc cc cc	 mov	 eax, -858993460		; ccccccccH
  00027	f3 ab		 rep stosd
  00029	48 8b 8c 24 c8
	01 00 00	 mov	 rcx, QWORD PTR [rsp+456]
  00031	48 8b 05 00 00
	00 00		 mov	 rax, QWORD PTR __security_cookie
  00038	48 33 c5	 xor	 rax, rbp
  0003b	48 89 85 70 01
	00 00		 mov	 QWORD PTR __$ArrayPad$[rbp], rax
  00042	48 8d 0d 00 00
	00 00		 lea	 rcx, OFFSET FLAT:__004E3A46_ostream
  00049	e8 00 00 00 00	 call	 __CheckForDebuggerJustMyCode

; 768  :     // insert NTBS into char stream
; 769  :     using _Elem = char;
; 770  :     using _Myos = basic_ostream<_Elem, _Traits>;
; 771  : 
; 772  :     ios_base::iostate _State = ios_base::goodbit;

  0004e	c7 45 04 00 00
	00 00		 mov	 DWORD PTR _State$[rbp], 0

; 773  :     streamsize _Count        = static_cast<streamsize>(_Traits::length(_Val));

  00055	48 8b 8d a8 01
	00 00		 mov	 rcx, QWORD PTR _Val$[rbp]
  0005c	e8 00 00 00 00	 call	 ?length@?$_Narrow_char_traits@DH@std@@SA_KQEBD@Z ; std::_Narrow_char_traits<char,int>::length
  00061	48 89 45 28	 mov	 QWORD PTR _Count$[rbp], rax

; 774  :     streamsize _Pad          = _Ostr.width() <= 0 || _Ostr.width() <= _Count ? 0 : _Ostr.width() - _Count;

  00065	48 8b 85 a0 01
	00 00		 mov	 rax, QWORD PTR _Ostr$[rbp]
  0006c	48 8b 00	 mov	 rax, QWORD PTR [rax]
  0006f	48 63 40 04	 movsxd	 rax, DWORD PTR [rax+4]
  00073	48 8b 8d a0 01
	00 00		 mov	 rcx, QWORD PTR _Ostr$[rbp]
  0007a	48 03 c8	 add	 rcx, rax
  0007d	48 8b c1	 mov	 rax, rcx
  00080	48 8b c8	 mov	 rcx, rax
  00083	ff 15 00 00 00
	00		 call	 QWORD PTR __imp_?width@ios_base@std@@QEBA_JXZ
  00089	48 85 c0	 test	 rax, rax
  0008c	7e 5b		 jle	 SHORT $LN17@operator
  0008e	48 8b 85 a0 01
	00 00		 mov	 rax, QWORD PTR _Ostr$[rbp]
  00095	48 8b 00	 mov	 rax, QWORD PTR [rax]
  00098	48 63 40 04	 movsxd	 rax, DWORD PTR [rax+4]
  0009c	48 8b 8d a0 01
	00 00		 mov	 rcx, QWORD PTR _Ostr$[rbp]
  000a3	48 03 c8	 add	 rcx, rax
  000a6	48 8b c1	 mov	 rax, rcx
  000a9	48 8b c8	 mov	 rcx, rax
  000ac	ff 15 00 00 00
	00		 call	 QWORD PTR __imp_?width@ios_base@std@@QEBA_JXZ
  000b2	48 3b 45 28	 cmp	 rax, QWORD PTR _Count$[rbp]
  000b6	7e 31		 jle	 SHORT $LN17@operator
  000b8	48 8b 85 a0 01
	00 00		 mov	 rax, QWORD PTR _Ostr$[rbp]
  000bf	48 8b 00	 mov	 rax, QWORD PTR [rax]
  000c2	48 63 40 04	 movsxd	 rax, DWORD PTR [rax+4]
  000c6	48 8b 8d a0 01
	00 00		 mov	 rcx, QWORD PTR _Ostr$[rbp]
  000cd	48 03 c8	 add	 rcx, rax
  000d0	48 8b c1	 mov	 rax, rcx
  000d3	48 8b c8	 mov	 rcx, rax
  000d6	ff 15 00 00 00
	00		 call	 QWORD PTR __imp_?width@ios_base@std@@QEBA_JXZ
  000dc	48 2b 45 28	 sub	 rax, QWORD PTR _Count$[rbp]
  000e0	48 89 85 68 01
	00 00		 mov	 QWORD PTR tv137[rbp], rax
  000e7	eb 0b		 jmp	 SHORT $LN18@operator
$LN17@operator:
  000e9	48 c7 85 68 01
	00 00 00 00 00
	00		 mov	 QWORD PTR tv137[rbp], 0
$LN18@operator:
  000f4	48 8b 85 68 01
	00 00		 mov	 rax, QWORD PTR tv137[rbp]
  000fb	48 89 45 48	 mov	 QWORD PTR _Pad$[rbp], rax

; 775  :     const typename _Myos::sentry _Ok(_Ostr);

  000ff	48 8b 95 a0 01
	00 00		 mov	 rdx, QWORD PTR _Ostr$[rbp]
  00106	48 8d 4d 68	 lea	 rcx, QWORD PTR _Ok$[rbp]
  0010a	e8 00 00 00 00	 call	 ??0sentry@?$basic_ostream@DU?$char_traits@D@std@@@std@@QEAA@AEAV12@@Z ; std::basic_ostream<char,std::char_traits<char> >::sentry::sentry
  0010f	90		 npad	 1

; 776  : 
; 777  :     if (!_Ok) {

  00110	48 8d 4d 68	 lea	 rcx, QWORD PTR _Ok$[rbp]
  00114	e8 00 00 00 00	 call	 ??Bsentry@?$basic_ostream@DU?$char_traits@D@std@@@std@@QEBA_NXZ ; std::basic_ostream<char,std::char_traits<char> >::sentry::operator bool
  00119	0f b6 c0	 movzx	 eax, al
  0011c	85 c0		 test	 eax, eax
  0011e	75 0e		 jne	 SHORT $LN8@operator

; 778  :         _State |= ios_base::badbit;

  00120	8b 45 04	 mov	 eax, DWORD PTR _State$[rbp]
  00123	83 c8 04	 or	 eax, 4
  00126	89 45 04	 mov	 DWORD PTR _State$[rbp], eax

; 779  :     } else { // state okay, insert

  00129	e9 0a 02 00 00	 jmp	 $LN9@operator
$LN8@operator:

; 780  :         _TRY_IO_BEGIN
; 781  :         if ((_Ostr.flags() & ios_base::adjustfield) != ios_base::left) {

  0012e	48 8b 85 a0 01
	00 00		 mov	 rax, QWORD PTR _Ostr$[rbp]
  00135	48 8b 00	 mov	 rax, QWORD PTR [rax]
  00138	48 63 40 04	 movsxd	 rax, DWORD PTR [rax+4]
  0013c	48 8b 8d a0 01
	00 00		 mov	 rcx, QWORD PTR _Ostr$[rbp]
  00143	48 03 c8	 add	 rcx, rax
  00146	48 8b c1	 mov	 rax, rcx
  00149	48 8b c8	 mov	 rcx, rax
  0014c	ff 15 00 00 00
	00		 call	 QWORD PTR __imp_?flags@ios_base@std@@QEBAHXZ
  00152	25 c0 01 00 00	 and	 eax, 448		; 000001c0H
  00157	83 f8 40	 cmp	 eax, 64			; 00000040H
  0015a	0f 84 a5 00 00
	00		 je	 $LN11@operator

; 782  :             for (; 0 < _Pad; --_Pad) { // pad on left

  00160	eb 0b		 jmp	 SHORT $LN4@operator
$LN2@operator:
  00162	48 8b 45 48	 mov	 rax, QWORD PTR _Pad$[rbp]
  00166	48 ff c8	 dec	 rax
  00169	48 89 45 48	 mov	 QWORD PTR _Pad$[rbp], rax
$LN4@operator:
  0016d	48 83 7d 48 00	 cmp	 QWORD PTR _Pad$[rbp], 0
  00172	0f 8e 8d 00 00
	00		 jle	 $LN11@operator

; 783  :                 if (_Traits::eq_int_type(_Traits::eof(), _Ostr.rdbuf()->sputc(_Ostr.fill()))) {

  00178	48 8b 85 a0 01
	00 00		 mov	 rax, QWORD PTR _Ostr$[rbp]
  0017f	48 8b 00	 mov	 rax, QWORD PTR [rax]
  00182	48 63 40 04	 movsxd	 rax, DWORD PTR [rax+4]
  00186	48 8b 8d a0 01
	00 00		 mov	 rcx, QWORD PTR _Ostr$[rbp]
  0018d	48 03 c8	 add	 rcx, rax
  00190	48 8b c1	 mov	 rax, rcx
  00193	48 8b c8	 mov	 rcx, rax
  00196	ff 15 00 00 00
	00		 call	 QWORD PTR __imp_?fill@?$basic_ios@DU?$char_traits@D@std@@@std@@QEBADXZ
  0019c	88 85 64 01 00
	00		 mov	 BYTE PTR tv285[rbp], al
  001a2	48 8b 8d a0 01
	00 00		 mov	 rcx, QWORD PTR _Ostr$[rbp]
  001a9	48 8b 09	 mov	 rcx, QWORD PTR [rcx]
  001ac	48 63 49 04	 movsxd	 rcx, DWORD PTR [rcx+4]
  001b0	48 8b 95 a0 01
	00 00		 mov	 rdx, QWORD PTR _Ostr$[rbp]
  001b7	48 03 d1	 add	 rdx, rcx
  001ba	48 8b ca	 mov	 rcx, rdx
  001bd	ff 15 00 00 00
	00		 call	 QWORD PTR __imp_?rdbuf@?$basic_ios@DU?$char_traits@D@std@@@std@@QEBAPEAV?$basic_streambuf@DU?$char_traits@D@std@@@2@XZ
  001c3	0f b6 8d 64 01
	00 00		 movzx	 ecx, BYTE PTR tv285[rbp]
  001ca	0f b6 d1	 movzx	 edx, cl
  001cd	48 8b c8	 mov	 rcx, rax
  001d0	ff 15 00 00 00
	00		 call	 QWORD PTR __imp_?sputc@?$basic_streambuf@DU?$char_traits@D@std@@@std@@QEAAHD@Z
  001d6	89 85 68 01 00
	00		 mov	 DWORD PTR tv139[rbp], eax
  001dc	e8 00 00 00 00	 call	 ?eof@?$_Narrow_char_traits@DH@std@@SAHXZ ; std::_Narrow_char_traits<char,int>::eof
  001e1	8b 95 68 01 00
	00		 mov	 edx, DWORD PTR tv139[rbp]
  001e7	8b c8		 mov	 ecx, eax
  001e9	e8 00 00 00 00	 call	 ?eq_int_type@?$_Narrow_char_traits@DH@std@@SA_NHH@Z ; std::_Narrow_char_traits<char,int>::eq_int_type
  001ee	0f b6 c0	 movzx	 eax, al
  001f1	85 c0		 test	 eax, eax
  001f3	74 0b		 je	 SHORT $LN12@operator

; 784  :                     _State |= ios_base::badbit; // insertion failed, quit

  001f5	8b 45 04	 mov	 eax, DWORD PTR _State$[rbp]
  001f8	83 c8 04	 or	 eax, 4
  001fb	89 45 04	 mov	 DWORD PTR _State$[rbp], eax

; 785  :                     break;

  001fe	eb 05		 jmp	 SHORT $LN11@operator
$LN12@operator:

; 786  :                 }
; 787  :             }

  00200	e9 5d ff ff ff	 jmp	 $LN2@operator
$LN11@operator:

; 788  :         }
; 789  : 
; 790  :         if (_State == ios_base::goodbit && _Ostr.rdbuf()->sputn(_Val, _Count) != _Count) {

  00205	83 7d 04 00	 cmp	 DWORD PTR _State$[rbp], 0
  00209	75 55		 jne	 SHORT $LN13@operator
  0020b	48 8b 85 a0 01
	00 00		 mov	 rax, QWORD PTR _Ostr$[rbp]
  00212	48 8b 00	 mov	 rax, QWORD PTR [rax]
  00215	48 63 40 04	 movsxd	 rax, DWORD PTR [rax+4]
  00219	48 8b 8d a0 01
	00 00		 mov	 rcx, QWORD PTR _Ostr$[rbp]
  00220	48 03 c8	 add	 rcx, rax
  00223	48 8b c1	 mov	 rax, rcx
  00226	48 8b c8	 mov	 rcx, rax
  00229	ff 15 00 00 00
	00		 call	 QWORD PTR __imp_?rdbuf@?$basic_ios@DU?$char_traits@D@std@@@std@@QEBAPEAV?$basic_streambuf@DU?$char_traits@D@std@@@2@XZ
  0022f	4c 8b 45 28	 mov	 r8, QWORD PTR _Count$[rbp]
  00233	48 8b 95 a8 01
	00 00		 mov	 rdx, QWORD PTR _Val$[rbp]
  0023a	48 8b c8	 mov	 rcx, rax
  0023d	ff 15 00 00 00
	00		 call	 QWORD PTR __imp_?sputn@?$basic_streambuf@DU?$char_traits@D@std@@@std@@QEAA_JPEBD_J@Z
  00243	48 89 85 68 01
	00 00		 mov	 QWORD PTR tv295[rbp], rax
  0024a	48 8b 45 28	 mov	 rax, QWORD PTR _Count$[rbp]
  0024e	48 39 85 68 01
	00 00		 cmp	 QWORD PTR tv295[rbp], rax
  00255	74 09		 je	 SHORT $LN13@operator

; 791  :             _State |= ios_base::badbit;

  00257	8b 45 04	 mov	 eax, DWORD PTR _State$[rbp]
  0025a	83 c8 04	 or	 eax, 4
  0025d	89 45 04	 mov	 DWORD PTR _State$[rbp], eax
$LN13@operator:

; 792  :         }
; 793  : 
; 794  :         if (_State == ios_base::goodbit) {

  00260	83 7d 04 00	 cmp	 DWORD PTR _State$[rbp], 0
  00264	0f 85 a5 00 00
	00		 jne	 $LN14@operator

; 795  :             for (; 0 < _Pad; --_Pad) { // pad on right

  0026a	eb 0b		 jmp	 SHORT $LN7@operator
$LN5@operator:
  0026c	48 8b 45 48	 mov	 rax, QWORD PTR _Pad$[rbp]
  00270	48 ff c8	 dec	 rax
  00273	48 89 45 48	 mov	 QWORD PTR _Pad$[rbp], rax
$LN7@operator:
  00277	48 83 7d 48 00	 cmp	 QWORD PTR _Pad$[rbp], 0
  0027c	0f 8e 8d 00 00
	00		 jle	 $LN14@operator

; 796  :                 if (_Traits::eq_int_type(_Traits::eof(), _Ostr.rdbuf()->sputc(_Ostr.fill()))) {

  00282	48 8b 85 a0 01
	00 00		 mov	 rax, QWORD PTR _Ostr$[rbp]
  00289	48 8b 00	 mov	 rax, QWORD PTR [rax]
  0028c	48 63 40 04	 movsxd	 rax, DWORD PTR [rax+4]
  00290	48 8b 8d a0 01
	00 00		 mov	 rcx, QWORD PTR _Ostr$[rbp]
  00297	48 03 c8	 add	 rcx, rax
  0029a	48 8b c1	 mov	 rax, rcx
  0029d	48 8b c8	 mov	 rcx, rax
  002a0	ff 15 00 00 00
	00		 call	 QWORD PTR __imp_?fill@?$basic_ios@DU?$char_traits@D@std@@@std@@QEBADXZ
  002a6	88 85 64 01 00
	00		 mov	 BYTE PTR tv283[rbp], al
  002ac	48 8b 8d a0 01
	00 00		 mov	 rcx, QWORD PTR _Ostr$[rbp]
  002b3	48 8b 09	 mov	 rcx, QWORD PTR [rcx]
  002b6	48 63 49 04	 movsxd	 rcx, DWORD PTR [rcx+4]
  002ba	48 8b 95 a0 01
	00 00		 mov	 rdx, QWORD PTR _Ostr$[rbp]
  002c1	48 03 d1	 add	 rdx, rcx
  002c4	48 8b ca	 mov	 rcx, rdx
  002c7	ff 15 00 00 00
	00		 call	 QWORD PTR __imp_?rdbuf@?$basic_ios@DU?$char_traits@D@std@@@std@@QEBAPEAV?$basic_streambuf@DU?$char_traits@D@std@@@2@XZ
  002cd	0f b6 8d 64 01
	00 00		 movzx	 ecx, BYTE PTR tv283[rbp]
  002d4	0f b6 d1	 movzx	 edx, cl
  002d7	48 8b c8	 mov	 rcx, rax
  002da	ff 15 00 00 00
	00		 call	 QWORD PTR __imp_?sputc@?$basic_streambuf@DU?$char_traits@D@std@@@std@@QEAAHD@Z
  002e0	89 85 68 01 00
	00		 mov	 DWORD PTR tv296[rbp], eax
  002e6	e8 00 00 00 00	 call	 ?eof@?$_Narrow_char_traits@DH@std@@SAHXZ ; std::_Narrow_char_traits<char,int>::eof
  002eb	8b 95 68 01 00
	00		 mov	 edx, DWORD PTR tv296[rbp]
  002f1	8b c8		 mov	 ecx, eax
  002f3	e8 00 00 00 00	 call	 ?eq_int_type@?$_Narrow_char_traits@DH@std@@SA_NHH@Z ; std::_Narrow_char_traits<char,int>::eq_int_type
  002f8	0f b6 c0	 movzx	 eax, al
  002fb	85 c0		 test	 eax, eax
  002fd	74 0b		 je	 SHORT $LN15@operator

; 797  :                     _State |= ios_base::badbit; // insertion failed, quit

  002ff	8b 45 04	 mov	 eax, DWORD PTR _State$[rbp]
  00302	83 c8 04	 or	 eax, 4
  00305	89 45 04	 mov	 DWORD PTR _State$[rbp], eax

; 798  :                     break;

  00308	eb 05		 jmp	 SHORT $LN14@operator
$LN15@operator:

; 799  :                 }
; 800  :             }

  0030a	e9 5d ff ff ff	 jmp	 $LN5@operator
$LN14@operator:

; 801  :         }
; 802  : 
; 803  :         _Ostr.width(0);

  0030f	48 8b 85 a0 01
	00 00		 mov	 rax, QWORD PTR _Ostr$[rbp]
  00316	48 8b 00	 mov	 rax, QWORD PTR [rax]
  00319	48 63 40 04	 movsxd	 rax, DWORD PTR [rax+4]
  0031d	48 8b 8d a0 01
	00 00		 mov	 rcx, QWORD PTR _Ostr$[rbp]
  00324	48 03 c8	 add	 rcx, rax
  00327	48 8b c1	 mov	 rax, rcx
  0032a	33 d2		 xor	 edx, edx
  0032c	48 8b c8	 mov	 rcx, rax
  0032f	ff 15 00 00 00
	00		 call	 QWORD PTR __imp_?width@ios_base@std@@QEAA_J_J@Z
  00335	90		 npad	 1
  00336	eb 00		 jmp	 SHORT $LN9@operator
$LN23@operator:
$LN9@operator:

; 804  :         _CATCH_IO_(ios_base, _Ostr)
; 805  :     }
; 806  : 
; 807  :     _Ostr.setstate(_State);

  00338	48 8b 85 a0 01
	00 00		 mov	 rax, QWORD PTR _Ostr$[rbp]
  0033f	48 8b 00	 mov	 rax, QWORD PTR [rax]
  00342	48 63 40 04	 movsxd	 rax, DWORD PTR [rax+4]
  00346	48 8b 8d a0 01
	00 00		 mov	 rcx, QWORD PTR _Ostr$[rbp]
  0034d	48 03 c8	 add	 rcx, rax
  00350	48 8b c1	 mov	 rax, rcx
  00353	45 33 c0	 xor	 r8d, r8d
  00356	8b 55 04	 mov	 edx, DWORD PTR _State$[rbp]
  00359	48 8b c8	 mov	 rcx, rax
  0035c	ff 15 00 00 00
	00		 call	 QWORD PTR __imp_?setstate@?$basic_ios@DU?$char_traits@D@std@@@std@@QEAAXH_N@Z

; 808  :     return _Ostr;

  00362	48 8b 85 a0 01
	00 00		 mov	 rax, QWORD PTR _Ostr$[rbp]
  00369	48 89 85 58 01
	00 00		 mov	 QWORD PTR $T4[rbp], rax
  00370	48 8d 4d 68	 lea	 rcx, QWORD PTR _Ok$[rbp]
  00374	e8 00 00 00 00	 call	 ??1sentry@?$basic_ostream@DU?$char_traits@D@std@@@std@@QEAA@XZ ; std::basic_ostream<char,std::char_traits<char> >::sentry::~sentry
  00379	48 8b 85 58 01
	00 00		 mov	 rax, QWORD PTR $T4[rbp]

; 809  : }

  00380	48 8b f8	 mov	 rdi, rax
  00383	48 8d 4d e0	 lea	 rcx, QWORD PTR [rbp-32]
  00387	48 8d 15 00 00
	00 00		 lea	 rdx, OFFSET FLAT:??$?6U?$char_traits@D@std@@@std@@YAAEAV?$basic_ostream@DU?$char_traits@D@std@@@0@AEAV10@PEBD@Z$rtcFrameData
  0038e	e8 00 00 00 00	 call	 _RTC_CheckStackVars
  00393	48 8b c7	 mov	 rax, rdi
  00396	48 8b 8d 70 01
	00 00		 mov	 rcx, QWORD PTR __$ArrayPad$[rbp]
  0039d	48 33 cd	 xor	 rcx, rbp
  003a0	e8 00 00 00 00	 call	 __security_check_cookie
  003a5	48 8d a5 88 01
	00 00		 lea	 rsp, QWORD PTR [rbp+392]
  003ac	5f		 pop	 rdi
  003ad	5d		 pop	 rbp
  003ae	c3		 ret	 0
??$?6U?$char_traits@D@std@@@std@@YAAEAV?$basic_ostream@DU?$char_traits@D@std@@@0@AEAV10@PEBD@Z ENDP ; std::operator<<<std::char_traits<char> >
_TEXT	ENDS
; Function compile flags: /Odtp /RTCsu /ZI
;	COMDAT text$x
text$x	SEGMENT
_State$ = 4
_Count$ = 40
_Pad$ = 72
_Ok$ = 104
$T4 = 344
tv285 = 356
tv283 = 356
tv296 = 360
tv295 = 360
tv139 = 360
tv137 = 360
__$ArrayPad$ = 368
_Ostr$ = 416
_Val$ = 424
?dtor$0@?0???$?6U?$char_traits@D@std@@@std@@YAAEAV?$basic_ostream@DU?$char_traits@D@std@@@0@AEAV10@PEBD@Z@4HA PROC ; `std::operator<<<std::char_traits<char> >'::`1'::dtor$0
  00000	48 89 4c 24 08	 mov	 QWORD PTR [rsp+8], rcx
  00005	48 89 54 24 10	 mov	 QWORD PTR [rsp+16], rdx
  0000a	55		 push	 rbp
  0000b	57		 push	 rdi
  0000c	48 83 ec 28	 sub	 rsp, 40			; 00000028H
  00010	48 8d 6a 20	 lea	 rbp, QWORD PTR [rdx+32]
  00014	48 8d 4d 68	 lea	 rcx, QWORD PTR _Ok$[rbp]
  00018	e8 00 00 00 00	 call	 ??1sentry@?$basic_ostream@DU?$char_traits@D@std@@@std@@QEAA@XZ ; std::basic_ostream<char,std::char_traits<char> >::sentry::~sentry
  0001d	48 83 c4 28	 add	 rsp, 40			; 00000028H
  00021	5f		 pop	 rdi
  00022	5d		 pop	 rbp
  00023	c3		 ret	 0
?dtor$0@?0???$?6U?$char_traits@D@std@@@std@@YAAEAV?$basic_ostream@DU?$char_traits@D@std@@@0@AEAV10@PEBD@Z@4HA ENDP ; `std::operator<<<std::char_traits<char> >'::`1'::dtor$0
text$x	ENDS
; Function compile flags: /Odtp /RTCsu /ZI
;	COMDAT text$x
text$x	SEGMENT
_State$ = 4
_Count$ = 40
_Pad$ = 72
_Ok$ = 104
$T4 = 344
tv285 = 356
tv283 = 356
tv296 = 360
tv295 = 360
tv139 = 360
tv137 = 360
__$ArrayPad$ = 368
_Ostr$ = 416
_Val$ = 424
?catch$1@?0???$?6U?$char_traits@D@std@@@std@@YAAEAV?$basic_ostream@DU?$char_traits@D@std@@@0@AEAV10@PEBD@Z@4HA PROC ; `std::operator<<<std::char_traits<char> >'::`1'::catch$1

; 804  :         _CATCH_IO_(ios_base, _Ostr)

  00000	48 89 4c 24 08	 mov	 QWORD PTR [rsp+8], rcx
  00005	48 89 54 24 10	 mov	 QWORD PTR [rsp+16], rdx
  0000a	55		 push	 rbp
  0000b	57		 push	 rdi
  0000c	48 83 ec 28	 sub	 rsp, 40			; 00000028H
  00010	48 8d 6a 20	 lea	 rbp, QWORD PTR [rdx+32]
__catch$??$?6U?$char_traits@D@std@@@std@@YAAEAV?$basic_ostream@DU?$char_traits@D@std@@@0@AEAV10@PEBD@Z$0:
  00014	48 8b 85 a0 01
	00 00		 mov	 rax, QWORD PTR _Ostr$[rbp]
  0001b	48 8b 00	 mov	 rax, QWORD PTR [rax]
  0001e	48 63 40 04	 movsxd	 rax, DWORD PTR [rax+4]
  00022	48 8b 8d a0 01
	00 00		 mov	 rcx, QWORD PTR _Ostr$[rbp]
  00029	48 03 c8	 add	 rcx, rax
  0002c	48 8b c1	 mov	 rax, rcx
  0002f	41 b0 01	 mov	 r8b, 1
  00032	ba 04 00 00 00	 mov	 edx, 4
  00037	48 8b c8	 mov	 rcx, rax
  0003a	ff 15 00 00 00
	00		 call	 QWORD PTR __imp_?setstate@?$basic_ios@DU?$char_traits@D@std@@@std@@QEAAXH_N@Z
  00040	90		 npad	 1
  00041	48 8d 05 00 00
	00 00		 lea	 rax, $LN23@catch$1
  00048	48 83 c4 28	 add	 rsp, 40			; 00000028H
  0004c	5f		 pop	 rdi
  0004d	5d		 pop	 rbp
  0004e	c3		 ret	 0
  0004f	cc		 int	 3
?catch$1@?0???$?6U?$char_traits@D@std@@@std@@YAAEAV?$basic_ostream@DU?$char_traits@D@std@@@0@AEAV10@PEBD@Z@4HA ENDP ; `std::operator<<<std::char_traits<char> >'::`1'::catch$1
text$x	ENDS
; Function compile flags: /Odtp /RTCsu /ZI
; File C:\Program Files\Microsoft Visual Studio\2022\Preview\VC\Tools\MSVC\14.38.32919\include\ostream
;	COMDAT ??$endl@DU?$char_traits@D@std@@@std@@YAAEAV?$basic_ostream@DU?$char_traits@D@std@@@0@AEAV10@@Z
_TEXT	SEGMENT
_Ostr$ = 224
??$endl@DU?$char_traits@D@std@@@std@@YAAEAV?$basic_ostream@DU?$char_traits@D@std@@@0@AEAV10@@Z PROC ; std::endl<char,std::char_traits<char> >, COMDAT

; 1011 :     basic_ostream<_Elem, _Traits>& _Ostr) { // insert newline and flush stream

$LN3:
  00000	48 89 4c 24 08	 mov	 QWORD PTR [rsp+8], rcx
  00005	55		 push	 rbp
  00006	57		 push	 rdi
  00007	48 81 ec e8 00
	00 00		 sub	 rsp, 232		; 000000e8H
  0000e	48 8d 6c 24 20	 lea	 rbp, QWORD PTR [rsp+32]
  00013	48 8d 0d 00 00
	00 00		 lea	 rcx, OFFSET FLAT:__004E3A46_ostream
  0001a	e8 00 00 00 00	 call	 __CheckForDebuggerJustMyCode

; 1012 :     _Ostr.put(_Ostr.widen('\n'));

  0001f	48 8b 85 e0 00
	00 00		 mov	 rax, QWORD PTR _Ostr$[rbp]
  00026	48 8b 00	 mov	 rax, QWORD PTR [rax]
  00029	48 63 40 04	 movsxd	 rax, DWORD PTR [rax+4]
  0002d	48 8b 8d e0 00
	00 00		 mov	 rcx, QWORD PTR _Ostr$[rbp]
  00034	48 03 c8	 add	 rcx, rax
  00037	48 8b c1	 mov	 rax, rcx
  0003a	b2 0a		 mov	 dl, 10
  0003c	48 8b c8	 mov	 rcx, rax
  0003f	ff 15 00 00 00
	00		 call	 QWORD PTR __imp_?widen@?$basic_ios@DU?$char_traits@D@std@@@std@@QEBADD@Z
  00045	0f b6 d0	 movzx	 edx, al
  00048	48 8b 8d e0 00
	00 00		 mov	 rcx, QWORD PTR _Ostr$[rbp]
  0004f	ff 15 00 00 00
	00		 call	 QWORD PTR __imp_?put@?$basic_ostream@DU?$char_traits@D@std@@@std@@QEAAAEAV12@D@Z

; 1013 :     _Ostr.flush();

  00055	48 8b 8d e0 00
	00 00		 mov	 rcx, QWORD PTR _Ostr$[rbp]
  0005c	ff 15 00 00 00
	00		 call	 QWORD PTR __imp_?flush@?$basic_ostream@DU?$char_traits@D@std@@@std@@QEAAAEAV12@XZ

; 1014 :     return _Ostr;

  00062	48 8b 85 e0 00
	00 00		 mov	 rax, QWORD PTR _Ostr$[rbp]

; 1015 : }

  00069	48 8d a5 c8 00
	00 00		 lea	 rsp, QWORD PTR [rbp+200]
  00070	5f		 pop	 rdi
  00071	5d		 pop	 rbp
  00072	c3		 ret	 0
??$endl@DU?$char_traits@D@std@@@std@@YAAEAV?$basic_ostream@DU?$char_traits@D@std@@@0@AEAV10@@Z ENDP ; std::endl<char,std::char_traits<char> >
_TEXT	ENDS
; Function compile flags: /Odtp /RTCsu /ZI
; File D:\уник\2 сем\КПО\lab01\lab01(kpo1)\lab01(kpo1)\lab01(kpo1).cpp
;	COMDAT ?BirthDay@@YAXPEAHHH@Z
_TEXT	SEGMENT
sum1$ = 4
i$4 = 36
Bday$ = 68
Bmonth$ = 100
Bdate$ = 132
sum2$ = 164
i$5 = 196
tv141 = 404
tv134 = 404
__$ArrayPad$ = 408
array$ = 448
day$ = 456
month$ = 464
?BirthDay@@YAXPEAHHH@Z PROC				; BirthDay, COMDAT

; 7    : {

$LN11:
  00000	44 89 44 24 18	 mov	 DWORD PTR [rsp+24], r8d
  00005	89 54 24 10	 mov	 DWORD PTR [rsp+16], edx
  00009	48 89 4c 24 08	 mov	 QWORD PTR [rsp+8], rcx
  0000e	55		 push	 rbp
  0000f	57		 push	 rdi
  00010	48 81 ec c8 01
	00 00		 sub	 rsp, 456		; 000001c8H
  00017	48 8d 6c 24 20	 lea	 rbp, QWORD PTR [rsp+32]
  0001c	48 8d 7c 24 20	 lea	 rdi, QWORD PTR [rsp+32]
  00021	b9 3a 00 00 00	 mov	 ecx, 58			; 0000003aH
  00026	b8 cc cc cc cc	 mov	 eax, -858993460		; ccccccccH
  0002b	f3 ab		 rep stosd
  0002d	48 8b 8c 24 e8
	01 00 00	 mov	 rcx, QWORD PTR [rsp+488]
  00035	48 8b 05 00 00
	00 00		 mov	 rax, QWORD PTR __security_cookie
  0003c	48 33 c5	 xor	 rax, rbp
  0003f	48 89 85 98 01
	00 00		 mov	 QWORD PTR __$ArrayPad$[rbp], rax
  00046	48 8d 0d 00 00
	00 00		 lea	 rcx, OFFSET FLAT:__1A2DC738_lab01(kpo1)@cpp
  0004d	e8 00 00 00 00	 call	 __CheckForDebuggerJustMyCode

; 8    : 	int sum1 = 0;

  00052	c7 45 04 00 00
	00 00		 mov	 DWORD PTR sum1$[rbp], 0

; 9    : 	*(array + 2) = 29; //РўР°Рє РєР°Рє 2024 РІРёСЃРѕРєРѕСЃРЅС‹Р№ 

  00059	48 8b 85 c0 01
	00 00		 mov	 rax, QWORD PTR array$[rbp]
  00060	c7 40 08 1d 00
	00 00		 mov	 DWORD PTR [rax+8], 29

; 10   : 	for (int i = 1; i < month; i++)

  00067	c7 45 24 01 00
	00 00		 mov	 DWORD PTR i$4[rbp], 1
  0006e	eb 08		 jmp	 SHORT $LN4@BirthDay
$LN2@BirthDay:
  00070	8b 45 24	 mov	 eax, DWORD PTR i$4[rbp]
  00073	ff c0		 inc	 eax
  00075	89 45 24	 mov	 DWORD PTR i$4[rbp], eax
$LN4@BirthDay:
  00078	8b 85 d0 01 00
	00		 mov	 eax, DWORD PTR month$[rbp]
  0007e	39 45 24	 cmp	 DWORD PTR i$4[rbp], eax
  00081	7d 1a		 jge	 SHORT $LN3@BirthDay

; 11   : 	{
; 12   : 		sum1 += *(array + i);

  00083	48 63 45 24	 movsxd	 rax, DWORD PTR i$4[rbp]
  00087	48 8b 8d c0 01
	00 00		 mov	 rcx, QWORD PTR array$[rbp]
  0008e	8b 04 81	 mov	 eax, DWORD PTR [rcx+rax*4]
  00091	8b 4d 04	 mov	 ecx, DWORD PTR sum1$[rbp]
  00094	03 c8		 add	 ecx, eax
  00096	8b c1		 mov	 eax, ecx
  00098	89 45 04	 mov	 DWORD PTR sum1$[rbp], eax

; 13   : 	}

  0009b	eb d3		 jmp	 SHORT $LN2@BirthDay
$LN3@BirthDay:

; 14   : 	sum1 += day;

  0009d	8b 85 c8 01 00
	00		 mov	 eax, DWORD PTR day$[rbp]
  000a3	8b 4d 04	 mov	 ecx, DWORD PTR sum1$[rbp]
  000a6	03 c8		 add	 ecx, eax
  000a8	8b c1		 mov	 eax, ecx
  000aa	89 45 04	 mov	 DWORD PTR sum1$[rbp], eax

; 15   : 	int Bday, Bmonth, Bdate;
; 16   : 	cout << endl << "Ur Birthday:  (day,month)" << endl;

  000ad	48 8d 15 00 00
	00 00		 lea	 rdx, OFFSET FLAT:??$endl@DU?$char_traits@D@std@@@std@@YAAEAV?$basic_ostream@DU?$char_traits@D@std@@@0@AEAV10@@Z ; std::endl<char,std::char_traits<char> >
  000b4	48 8b 0d 00 00
	00 00		 mov	 rcx, QWORD PTR __imp_?cout@std@@3V?$basic_ostream@DU?$char_traits@D@std@@@1@A
  000bb	ff 15 00 00 00
	00		 call	 QWORD PTR __imp_??6?$basic_ostream@DU?$char_traits@D@std@@@std@@QEAAAEAV01@P6AAEAV01@AEAV01@@Z@Z
  000c1	48 8d 15 00 00
	00 00		 lea	 rdx, OFFSET FLAT:??_C@_0BK@MLAGINKD@Ur?5Birthday?3?5?5?$CIday?0month?$CJ@
  000c8	48 8b c8	 mov	 rcx, rax
  000cb	e8 00 00 00 00	 call	 ??$?6U?$char_traits@D@std@@@std@@YAAEAV?$basic_ostream@DU?$char_traits@D@std@@@0@AEAV10@PEBD@Z ; std::operator<<<std::char_traits<char> >
  000d0	48 8d 15 00 00
	00 00		 lea	 rdx, OFFSET FLAT:??$endl@DU?$char_traits@D@std@@@std@@YAAEAV?$basic_ostream@DU?$char_traits@D@std@@@0@AEAV10@@Z ; std::endl<char,std::char_traits<char> >
  000d7	48 8b c8	 mov	 rcx, rax
  000da	ff 15 00 00 00
	00		 call	 QWORD PTR __imp_??6?$basic_ostream@DU?$char_traits@D@std@@@std@@QEAAAEAV01@P6AAEAV01@AEAV01@@Z@Z

; 17   : 	cin >> Bdate;

  000e0	48 8d 95 84 00
	00 00		 lea	 rdx, QWORD PTR Bdate$[rbp]
  000e7	48 8b 0d 00 00
	00 00		 mov	 rcx, QWORD PTR __imp_?cin@std@@3V?$basic_istream@DU?$char_traits@D@std@@@1@A
  000ee	ff 15 00 00 00
	00		 call	 QWORD PTR __imp_??5?$basic_istream@DU?$char_traits@D@std@@@std@@QEAAAEAV01@AEAH@Z

; 18   : 	Bday = Bdate / 100;

  000f4	8b 85 84 00 00
	00		 mov	 eax, DWORD PTR Bdate$[rbp]
  000fa	99		 cdq
  000fb	b9 64 00 00 00	 mov	 ecx, 100		; 00000064H
  00100	f7 f9		 idiv	 ecx
  00102	89 45 44	 mov	 DWORD PTR Bday$[rbp], eax

; 19   : 	Bmonth = Bdate % 100;

  00105	8b 85 84 00 00
	00		 mov	 eax, DWORD PTR Bdate$[rbp]
  0010b	99		 cdq
  0010c	b9 64 00 00 00	 mov	 ecx, 100		; 00000064H
  00111	f7 f9		 idiv	 ecx
  00113	8b c2		 mov	 eax, edx
  00115	89 45 64	 mov	 DWORD PTR Bmonth$[rbp], eax

; 20   : 	int sum2 = 0;

  00118	c7 85 a4 00 00
	00 00 00 00 00	 mov	 DWORD PTR sum2$[rbp], 0

; 21   : 	for (int i = 1; i < Bmonth; i++)

  00122	c7 85 c4 00 00
	00 01 00 00 00	 mov	 DWORD PTR i$5[rbp], 1
  0012c	eb 0e		 jmp	 SHORT $LN7@BirthDay
$LN5@BirthDay:
  0012e	8b 85 c4 00 00
	00		 mov	 eax, DWORD PTR i$5[rbp]
  00134	ff c0		 inc	 eax
  00136	89 85 c4 00 00
	00		 mov	 DWORD PTR i$5[rbp], eax
$LN7@BirthDay:
  0013c	8b 45 64	 mov	 eax, DWORD PTR Bmonth$[rbp]
  0013f	39 85 c4 00 00
	00		 cmp	 DWORD PTR i$5[rbp], eax
  00145	7d 23		 jge	 SHORT $LN6@BirthDay

; 22   : 	{
; 23   : 		sum2 += *(array + i);

  00147	48 63 85 c4 00
	00 00		 movsxd	 rax, DWORD PTR i$5[rbp]
  0014e	48 8b 8d c0 01
	00 00		 mov	 rcx, QWORD PTR array$[rbp]
  00155	8b 04 81	 mov	 eax, DWORD PTR [rcx+rax*4]
  00158	8b 8d a4 00 00
	00		 mov	 ecx, DWORD PTR sum2$[rbp]
  0015e	03 c8		 add	 ecx, eax
  00160	8b c1		 mov	 eax, ecx
  00162	89 85 a4 00 00
	00		 mov	 DWORD PTR sum2$[rbp], eax

; 24   : 	}

  00168	eb c4		 jmp	 SHORT $LN5@BirthDay
$LN6@BirthDay:

; 25   : 	sum2 += Bday;

  0016a	8b 45 44	 mov	 eax, DWORD PTR Bday$[rbp]
  0016d	8b 8d a4 00 00
	00		 mov	 ecx, DWORD PTR sum2$[rbp]
  00173	03 c8		 add	 ecx, eax
  00175	8b c1		 mov	 eax, ecx
  00177	89 85 a4 00 00
	00		 mov	 DWORD PTR sum2$[rbp], eax

; 26   : 	cout << endl << "Days left:";

  0017d	48 8d 15 00 00
	00 00		 lea	 rdx, OFFSET FLAT:??$endl@DU?$char_traits@D@std@@@std@@YAAEAV?$basic_ostream@DU?$char_traits@D@std@@@0@AEAV10@@Z ; std::endl<char,std::char_traits<char> >
  00184	48 8b 0d 00 00
	00 00		 mov	 rcx, QWORD PTR __imp_?cout@std@@3V?$basic_ostream@DU?$char_traits@D@std@@@1@A
  0018b	ff 15 00 00 00
	00		 call	 QWORD PTR __imp_??6?$basic_ostream@DU?$char_traits@D@std@@@std@@QEAAAEAV01@P6AAEAV01@AEAV01@@Z@Z
  00191	48 8d 15 00 00
	00 00		 lea	 rdx, OFFSET FLAT:??_C@_0L@DLFGBAGH@Days?5left?3@
  00198	48 8b c8	 mov	 rcx, rax
  0019b	e8 00 00 00 00	 call	 ??$?6U?$char_traits@D@std@@@std@@YAAEAV?$basic_ostream@DU?$char_traits@D@std@@@0@AEAV10@PEBD@Z ; std::operator<<<std::char_traits<char> >

; 27   : 	if (sum1 < sum2) cout << endl << sum2 - sum1;

  001a0	8b 85 a4 00 00
	00		 mov	 eax, DWORD PTR sum2$[rbp]
  001a6	39 45 04	 cmp	 DWORD PTR sum1$[rbp], eax
  001a9	7d 3a		 jge	 SHORT $LN8@BirthDay
  001ab	8b 45 04	 mov	 eax, DWORD PTR sum1$[rbp]
  001ae	8b 8d a4 00 00
	00		 mov	 ecx, DWORD PTR sum2$[rbp]
  001b4	2b c8		 sub	 ecx, eax
  001b6	8b c1		 mov	 eax, ecx
  001b8	89 85 94 01 00
	00		 mov	 DWORD PTR tv134[rbp], eax
  001be	48 8d 15 00 00
	00 00		 lea	 rdx, OFFSET FLAT:??$endl@DU?$char_traits@D@std@@@std@@YAAEAV?$basic_ostream@DU?$char_traits@D@std@@@0@AEAV10@@Z ; std::endl<char,std::char_traits<char> >
  001c5	48 8b 0d 00 00
	00 00		 mov	 rcx, QWORD PTR __imp_?cout@std@@3V?$basic_ostream@DU?$char_traits@D@std@@@1@A
  001cc	ff 15 00 00 00
	00		 call	 QWORD PTR __imp_??6?$basic_ostream@DU?$char_traits@D@std@@@std@@QEAAAEAV01@P6AAEAV01@AEAV01@@Z@Z
  001d2	8b 8d 94 01 00
	00		 mov	 ecx, DWORD PTR tv134[rbp]
  001d8	8b d1		 mov	 edx, ecx
  001da	48 8b c8	 mov	 rcx, rax
  001dd	ff 15 00 00 00
	00		 call	 QWORD PTR __imp_??6?$basic_ostream@DU?$char_traits@D@std@@@std@@QEAAAEAV01@H@Z
  001e3	eb 39		 jmp	 SHORT $LN9@BirthDay
$LN8@BirthDay:

; 28   : 	else cout << endl << 366 - sum1 + sum2;

  001e5	b8 6e 01 00 00	 mov	 eax, 366		; 0000016eH
  001ea	2b 45 04	 sub	 eax, DWORD PTR sum1$[rbp]
  001ed	03 85 a4 00 00
	00		 add	 eax, DWORD PTR sum2$[rbp]
  001f3	89 85 94 01 00
	00		 mov	 DWORD PTR tv141[rbp], eax
  001f9	48 8d 15 00 00
	00 00		 lea	 rdx, OFFSET FLAT:??$endl@DU?$char_traits@D@std@@@std@@YAAEAV?$basic_ostream@DU?$char_traits@D@std@@@0@AEAV10@@Z ; std::endl<char,std::char_traits<char> >
  00200	48 8b 0d 00 00
	00 00		 mov	 rcx, QWORD PTR __imp_?cout@std@@3V?$basic_ostream@DU?$char_traits@D@std@@@1@A
  00207	ff 15 00 00 00
	00		 call	 QWORD PTR __imp_??6?$basic_ostream@DU?$char_traits@D@std@@@std@@QEAAAEAV01@P6AAEAV01@AEAV01@@Z@Z
  0020d	8b 8d 94 01 00
	00		 mov	 ecx, DWORD PTR tv141[rbp]
  00213	8b d1		 mov	 edx, ecx
  00215	48 8b c8	 mov	 rcx, rax
  00218	ff 15 00 00 00
	00		 call	 QWORD PTR __imp_??6?$basic_ostream@DU?$char_traits@D@std@@@std@@QEAAAEAV01@H@Z
$LN9@BirthDay:

; 29   : }

  0021e	48 8d 4d e0	 lea	 rcx, QWORD PTR [rbp-32]
  00222	48 8d 15 00 00
	00 00		 lea	 rdx, OFFSET FLAT:?BirthDay@@YAXPEAHHH@Z$rtcFrameData
  00229	e8 00 00 00 00	 call	 _RTC_CheckStackVars
  0022e	48 8b 8d 98 01
	00 00		 mov	 rcx, QWORD PTR __$ArrayPad$[rbp]
  00235	48 33 cd	 xor	 rcx, rbp
  00238	e8 00 00 00 00	 call	 __security_check_cookie
  0023d	48 8d a5 a8 01
	00 00		 lea	 rsp, QWORD PTR [rbp+424]
  00244	5f		 pop	 rdi
  00245	5d		 pop	 rbp
  00246	c3		 ret	 0
?BirthDay@@YAXPEAHHH@Z ENDP				; BirthDay
_TEXT	ENDS
; Function compile flags: /Odtp /RTCsu /ZI
; File C:\Program Files\Microsoft Visual Studio\2022\Preview\VC\Tools\MSVC\14.38.32919\include\xstring
;	COMDAT ?eof@?$_Narrow_char_traits@DH@std@@SAHXZ
_TEXT	SEGMENT
?eof@?$_Narrow_char_traits@DH@std@@SAHXZ PROC		; std::_Narrow_char_traits<char,int>::eof, COMDAT

; 473  :     _NODISCARD static constexpr int_type eof() noexcept {

$LN3:
  00000	40 55		 push	 rbp
  00002	57		 push	 rdi
  00003	48 81 ec e8 00
	00 00		 sub	 rsp, 232		; 000000e8H
  0000a	48 8d 6c 24 20	 lea	 rbp, QWORD PTR [rsp+32]
  0000f	48 8d 0d 00 00
	00 00		 lea	 rcx, OFFSET FLAT:__CC6094B3_xstring
  00016	e8 00 00 00 00	 call	 __CheckForDebuggerJustMyCode

; 474  :         return static_cast<int_type>(EOF);

  0001b	b8 ff ff ff ff	 mov	 eax, -1

; 475  :     }

  00020	48 8d a5 c8 00
	00 00		 lea	 rsp, QWORD PTR [rbp+200]
  00027	5f		 pop	 rdi
  00028	5d		 pop	 rbp
  00029	c3		 ret	 0
?eof@?$_Narrow_char_traits@DH@std@@SAHXZ ENDP		; std::_Narrow_char_traits<char,int>::eof
_TEXT	ENDS
; Function compile flags: /Odtp /RTCsu /ZI
; File C:\Program Files\Microsoft Visual Studio\2022\Preview\VC\Tools\MSVC\14.38.32919\include\xstring
;	COMDAT ?eq_int_type@?$_Narrow_char_traits@DH@std@@SA_NHH@Z
_TEXT	SEGMENT
tv65 = 192
_Left$ = 240
_Right$ = 248
?eq_int_type@?$_Narrow_char_traits@DH@std@@SA_NHH@Z PROC ; std::_Narrow_char_traits<char,int>::eq_int_type, COMDAT

; 465  :     _NODISCARD static constexpr bool eq_int_type(const int_type _Left, const int_type _Right) noexcept {

$LN5:
  00000	89 54 24 10	 mov	 DWORD PTR [rsp+16], edx
  00004	89 4c 24 08	 mov	 DWORD PTR [rsp+8], ecx
  00008	55		 push	 rbp
  00009	57		 push	 rdi
  0000a	48 81 ec f8 00
	00 00		 sub	 rsp, 248		; 000000f8H
  00011	48 8d 6c 24 20	 lea	 rbp, QWORD PTR [rsp+32]
  00016	48 8d 0d 00 00
	00 00		 lea	 rcx, OFFSET FLAT:__CC6094B3_xstring
  0001d	e8 00 00 00 00	 call	 __CheckForDebuggerJustMyCode

; 466  :         return _Left == _Right;

  00022	8b 85 f8 00 00
	00		 mov	 eax, DWORD PTR _Right$[rbp]
  00028	39 85 f0 00 00
	00		 cmp	 DWORD PTR _Left$[rbp], eax
  0002e	75 0c		 jne	 SHORT $LN3@eq_int_typ
  00030	c7 85 c0 00 00
	00 01 00 00 00	 mov	 DWORD PTR tv65[rbp], 1
  0003a	eb 0a		 jmp	 SHORT $LN4@eq_int_typ
$LN3@eq_int_typ:
  0003c	c7 85 c0 00 00
	00 00 00 00 00	 mov	 DWORD PTR tv65[rbp], 0
$LN4@eq_int_typ:
  00046	0f b6 85 c0 00
	00 00		 movzx	 eax, BYTE PTR tv65[rbp]

; 467  :     }

  0004d	48 8d a5 d8 00
	00 00		 lea	 rsp, QWORD PTR [rbp+216]
  00054	5f		 pop	 rdi
  00055	5d		 pop	 rbp
  00056	c3		 ret	 0
?eq_int_type@?$_Narrow_char_traits@DH@std@@SA_NHH@Z ENDP ; std::_Narrow_char_traits<char,int>::eq_int_type
_TEXT	ENDS
; Function compile flags: /Odtp /RTCsu /ZI
; File C:\Program Files\Microsoft Visual Studio\2022\Preview\VC\Tools\MSVC\14.38.32919\include\xstring
;	COMDAT ?length@?$_Narrow_char_traits@DH@std@@SA_KQEBD@Z
_TEXT	SEGMENT
_First$ = 224
?length@?$_Narrow_char_traits@DH@std@@SA_KQEBD@Z PROC	; std::_Narrow_char_traits<char,int>::length, COMDAT

; 387  :     _NODISCARD static _CONSTEXPR17 size_t length(_In_z_ const _Elem* const _First) noexcept /* strengthened */ {

$LN3:
  00000	48 89 4c 24 08	 mov	 QWORD PTR [rsp+8], rcx
  00005	55		 push	 rbp
  00006	57		 push	 rdi
  00007	48 81 ec e8 00
	00 00		 sub	 rsp, 232		; 000000e8H
  0000e	48 8d 6c 24 20	 lea	 rbp, QWORD PTR [rsp+32]
  00013	48 8d 0d 00 00
	00 00		 lea	 rcx, OFFSET FLAT:__CC6094B3_xstring
  0001a	e8 00 00 00 00	 call	 __CheckForDebuggerJustMyCode

; 388  :         // find length of null-terminated string
; 389  : #if _HAS_CXX17
; 390  : #ifdef __cpp_char8_t
; 391  :         if constexpr (is_same_v<_Elem, char8_t>) {
; 392  : #if _HAS_U8_INTRINSICS
; 393  :             return __builtin_u8strlen(_First);
; 394  : #else // ^^^ use u8 intrinsics / no u8 intrinsics vvv
; 395  :             return _Primary_char_traits::length(_First);
; 396  : #endif // _HAS_U8_INTRINSICS
; 397  :         } else
; 398  : #endif // __cpp_char8_t
; 399  :         {
; 400  :             return __builtin_strlen(_First);
; 401  :         }
; 402  : #else // _HAS_CXX17
; 403  :         return _CSTD strlen(reinterpret_cast<const char*>(_First));

  0001f	48 8b 8d e0 00
	00 00		 mov	 rcx, QWORD PTR _First$[rbp]
  00026	e8 00 00 00 00	 call	 strlen

; 404  : #endif // _HAS_CXX17
; 405  :     }

  0002b	48 8d a5 c8 00
	00 00		 lea	 rsp, QWORD PTR [rbp+200]
  00032	5f		 pop	 rdi
  00033	5d		 pop	 rbp
  00034	c3		 ret	 0
?length@?$_Narrow_char_traits@DH@std@@SA_KQEBD@Z ENDP	; std::_Narrow_char_traits<char,int>::length
_TEXT	ENDS
; Function compile flags: /Odtp /RTCsu /ZI
; File D:\уник\2 сем\КПО\lab01\lab01(kpo1)\lab01(kpo1)\lab01(kpo1).cpp
;	COMDAT ?__empty_global_delete@@YAXPEAX_K@Z
_TEXT	SEGMENT
__formal$ = 224
__formal$ = 232
?__empty_global_delete@@YAXPEAX_K@Z PROC		; __empty_global_delete, COMDAT

$LN3:
  00000	48 89 54 24 10	 mov	 QWORD PTR [rsp+16], rdx
  00005	48 89 4c 24 08	 mov	 QWORD PTR [rsp+8], rcx
  0000a	55		 push	 rbp
  0000b	57		 push	 rdi
  0000c	48 81 ec e8 00
	00 00		 sub	 rsp, 232		; 000000e8H
  00013	48 8d 6c 24 20	 lea	 rbp, QWORD PTR [rsp+32]
  00018	48 8d 0d 00 00
	00 00		 lea	 rcx, OFFSET FLAT:__1A2DC738_lab01(kpo1)@cpp
  0001f	e8 00 00 00 00	 call	 __CheckForDebuggerJustMyCode
  00024	48 8d a5 c8 00
	00 00		 lea	 rsp, QWORD PTR [rbp+200]
  0002b	5f		 pop	 rdi
  0002c	5d		 pop	 rbp
  0002d	c3		 ret	 0
?__empty_global_delete@@YAXPEAX_K@Z ENDP		; __empty_global_delete
_TEXT	ENDS
; Function compile flags: /Odtp /RTCsu /ZI
; File D:\уник\2 сем\КПО\lab01\lab01(kpo1)\lab01(kpo1)\lab01(kpo1).cpp
;	COMDAT ?__empty_global_delete@@YAXPEAX@Z
_TEXT	SEGMENT
__formal$ = 224
?__empty_global_delete@@YAXPEAX@Z PROC			; __empty_global_delete, COMDAT

$LN3:
  00000	48 89 4c 24 08	 mov	 QWORD PTR [rsp+8], rcx
  00005	55		 push	 rbp
  00006	57		 push	 rdi
  00007	48 81 ec e8 00
	00 00		 sub	 rsp, 232		; 000000e8H
  0000e	48 8d 6c 24 20	 lea	 rbp, QWORD PTR [rsp+32]
  00013	48 8d 0d 00 00
	00 00		 lea	 rcx, OFFSET FLAT:__1A2DC738_lab01(kpo1)@cpp
  0001a	e8 00 00 00 00	 call	 __CheckForDebuggerJustMyCode
  0001f	48 8d a5 c8 00
	00 00		 lea	 rsp, QWORD PTR [rbp+200]
  00026	5f		 pop	 rdi
  00027	5d		 pop	 rbp
  00028	c3		 ret	 0
?__empty_global_delete@@YAXPEAX@Z ENDP			; __empty_global_delete
_TEXT	ENDS
END
